(dp0
S'12.png'
p1
(lp2
(lp3
g1
aS'Human'
p4
acnumpy.core.multiarray
_reconstruct
p5
(cnumpy
ndarray
p6
(I0
tp7
S'b'
p8
tp9
Rp10
(I1
(I4
tp11
cnumpy
dtype
p12
(S'f4'
p13
I0
I1
tp14
Rp15
(I3
S'<'
p16
NNNI-1
I-1
I0
tp17
bI00
S'\xf1\x8c\x8aDb\x14\xf1C\xe7\x12\xb1D\xd7\xf2JD'
p18
tp19
baFnan
aI1
acnumpy.core.multiarray
scalar
p20
(g15
S'I\xe3x?'
p21
tp22
Rp23
aa(lp24
g1
aS'Object'
p25
ag5
(g6
(I0
tp26
g8
tp27
Rp28
(I1
(I4
tp29
g15
I00
S'\x88\x05\xa3C>u\xe9C\xf4]\x13D\x98\x04\x85D'
p30
tp31
baFnan
aI57
ag20
(g15
S'\xc0\xcb}?'
p32
tp33
Rp34
aa(lp35
g1
ag25
ag5
(g6
(I0
tp36
g8
tp37
Rp38
(I1
(I4
tp39
g15
I00
S'\xa6R\xc1D\x8cP\xbdB\xeaX\xe4DMn\xd3C'
p40
tp41
baFnan
aI57
ag20
(g15
S'5\xe5f?'
p42
tp43
Rp44
aa(lp45
g1
ag25
ag5
(g6
(I0
tp46
g8
tp47
Rp48
(I1
(I4
tp49
g15
I00
S'0{\x90A\x92O\xd6C\xd3\xe6\xd0CxN\x82D'
p50
tp51
baFnan
aI57
ag20
(g15
S'\x07\x08]?'
p52
tp53
Rp54
aa(lp55
g1
ag25
ag5
(g6
(I0
tp56
g8
tp57
Rp58
(I1
(I4
tp59
g15
I00
S'<F\x0eD}-&B2l\x1fD\x88\xad\x0eC'
p60
tp61
baFnan
aI57
ag20
(g15
S'\xa7=D?'
p62
tp63
Rp64
aa(lp65
g1
ag25
ag5
(g6
(I0
tp66
g8
tp67
Rp68
(I1
(I4
tp69
g15
I00
S'H\x81\x14D\x94\x1a\xc6A\x9e\xcd@D\xbeq$C'
p70
tp71
baFnan
aI57
ag20
(g15
S'\xbe\x18=?'
p72
tp73
Rp74
aa(lp75
g1
ag25
ag5
(g6
(I0
tp76
g8
tp77
Rp78
(I1
(I4
tp79
g15
I00
S'0\x16^DG\x0c\x01C\xa2\xb3\x92Dx\x81\xe6C'
p80
tp81
baFnan
aI57
ag20
(g15
S'4A<?'
p82
tp83
Rp84
aa(lp85
g1
ag25
ag5
(g6
(I0
tp86
g8
tp87
Rp88
(I1
(I4
tp89
g15
I00
S'\xd9\x08\xaeD\xe2P\x19D=\xc6\xcaD\xce(nD'
p90
tp91
baFnan
aI57
ag20
(g15
S'S:3?'
p92
tp93
Rp94
aa(lp95
g1
ag25
ag5
(g6
(I0
tp96
g8
tp97
Rp98
(I1
(I4
tp99
g15
I00
S'T\xd7"AM\x98lC$\xba\xe0B6l\x04D'
p100
tp101
baFnan
aI57
ag20
(g15
S'\xee\xaa1?'
p102
tp103
Rp104
aa(lp105
g1
ag25
ag5
(g6
(I0
tp106
g8
tp107
Rp108
(I1
(I4
tp109
g15
I00
S'\xb8\xdf?D\x80\xc4\x02Ab\xc9]D\x15`8C'
p110
tp111
baFnan
aI57
ag20
(g15
S'\xd2`1?'
p112
tp113
Rp114
aa(lp115
g1
ag25
ag5
(g6
(I0
tp116
g8
tp117
Rp118
(I1
(I4
tp119
g15
I00
S'\xbf\xab\xaaC\x08\x868B$\xc7\x1cD[o\xb7C'
p120
tp121
baFnan
aI57
ag20
(g15
S'\x99\x91)?'
p122
tp123
Rp124
aa(lp125
g1
ag25
ag5
(g6
(I0
tp126
g8
tp127
Rp128
(I1
(I4
tp129
g15
I00
S'\xe3\xe6LD\t\x06kC#\x93{D"\xb6\x11D'
p130
tp131
baFnan
aI57
ag20
(g15
S'D\xdd\x1c?'
p132
tp133
Rp134
aa(lp135
g1
ag25
ag5
(g6
(I0
tp136
g8
tp137
Rp138
(I1
(I4
tp139
g15
I00
S'\xd7\xc8\xadD2\xad\x1aDS\xc4\xb7D\xe6\xafHD'
p140
tp141
baFnan
aI57
ag20
(g15
S'\xe2\x16\x01?'
p142
tp143
Rp144
aa(lp145
g1
ag25
ag5
(g6
(I0
tp146
g8
tp147
Rp148
(I1
(I4
tp149
g15
I00
S'\x884\xc5Cb\xe7FC\xf2)BD&zCD'
p150
tp151
baFnan
aI57
ag20
(g15
S'\xfek\xe7>'
p152
tp153
Rp154
aa(lp155
g1
ag25
ag5
(g6
(I0
tp156
g8
tp157
Rp158
(I1
(I4
tp159
g15
I00
S'\xe8}jA\xf6\x9faCx\xf1\x0eC=p\xa1C'
p160
tp161
baFnan
aI57
ag20
(g15
S'\xb8j\xe2>'
p162
tp163
Rp164
aa(lp165
g1
ag25
ag5
(g6
(I0
tp166
g8
tp167
Rp168
(I1
(I4
tp169
g15
I00
S'\xb9y\x81Cb\xadlC[\x15\xcaC\x83\xa2\xffC'
p170
tp171
baFnan
aI57
ag20
(g15
S'\x1a\xdc\xb6>'
p172
tp173
Rp174
aa(lp175
g1
ag25
ag5
(g6
(I0
tp176
g8
tp177
Rp178
(I1
(I4
tp179
g15
I00
S'\xad\xd9%D\xf5\xa4\x90C\x01\x80KD\x0e\x8a)D'
p180
tp181
baFnan
aI57
ag20
(g15
S'nk\xb6>'
p182
tp183
Rp184
aa(lp185
g1
ag25
ag5
(g6
(I0
tp186
g8
tp187
Rp188
(I1
(I4
tp189
g15
I00
S'\xa6\x0e\xfdC0v\nB\xf9x:D\xcf\xa2\xa2C'
p190
tp191
baFnan
aI57
ag20
(g15
S'Cr\xac>'
p192
tp193
Rp194
aa(lp195
g1
ag25
ag5
(g6
(I0
tp196
g8
tp197
Rp198
(I1
(I4
tp199
g15
I00
S'\xe4!ADL\xfb0D\x14\xa6\xb5D\x00\xe0\x86D'
p200
tp201
baFnan
aI61
ag20
(g15
S'\xb9aj?'
p202
tp203
Rp204
aa(lp205
g1
ag25
ag5
(g6
(I0
tp206
g8
tp207
Rp208
(I1
(I4
tp209
g15
I00
S'~\x11 Dq\xbecC\xaa\xd6}D%\xd8\x18D'
p210
tp211
baFnan
aI61
ag20
(g15
S'q8_?'
p212
tp213
Rp214
aa(lp215
g1
ag25
ag5
(g6
(I0
tp216
g8
tp217
Rp218
(I1
(I4
tp219
g15
I00
S'RZ\xb0C\xcc\xb4\xa0C\xddfGD"\xa1GD'
p220
tp221
baFnan
aI61
ag20
(g15
S'pC]?'
p222
tp223
Rp224
aa(lp225
g1
ag25
ag5
(g6
(I0
tp226
g8
tp227
Rp228
(I1
(I4
tp229
g15
I00
S'@\xda`B\xe1!lC=\x7f\xcaC\xc0\xc4\xfeC'
p230
tp231
baFnan
aI61
ag20
(g15
S'\x04\xf5??'
p232
tp233
Rp234
aa(lp235
g1
ag25
ag5
(g6
(I0
tp236
g8
tp237
Rp238
(I1
(I4
tp239
g15
I00
S'\xc0K\xd4@`\x14\xefCS\x9a\xdaCN"tD'
p240
tp241
baFnan
aI61
ag20
(g15
S'f\xe10?'
p242
tp243
Rp244
aa(lp245
g1
ag25
ag5
(g6
(I0
tp246
g8
tp247
Rp248
(I1
(I4
tp249
g15
I00
S'{\x0c\rD`\xc2SA\xdd\xcabD\xc1t3C'
p250
tp251
baFnan
aI61
ag20
(g15
S'\xed\xad.?'
p252
tp253
Rp254
aa(lp255
g1
ag25
ag5
(g6
(I0
tp256
g8
tp257
Rp258
(I1
(I4
tp259
g15
I00
S'\xf6,\xa1D\xbe\xc0\x9eC\xe6k\xd8D\x0f\xa19D'
p260
tp261
baFnan
aI61
ag20
(g15
S'\xafO\x05?'
p262
tp263
Rp264
aa(lp265
g1
ag25
ag5
(g6
(I0
tp266
g8
tp267
Rp268
(I1
(I4
tp269
g15
I00
S'3h\xa4C\xd7\xeb\x16C\x8e\x86$D\x9a\xda\xedC'
p270
tp271
baFnan
aI61
ag20
(g15
S'9\x82\xde>'
p272
tp273
Rp274
aa(lp275
g1
ag25
ag5
(g6
(I0
tp276
g8
tp277
Rp278
(I1
(I4
tp279
g15
I00
S'|\xbd\xc6C\xc9\nEB@\xfc\x19D\x83\xa9#C'
p280
tp281
baFnan
aI61
ag20
(g15
S'y\xbf\xa7>'
p282
tp283
Rp284
aa(lp285
g1
ag25
ag5
(g6
(I0
tp286
g8
tp287
Rp288
(I1
(I4
tp289
g15
I00
S'29\\D\xfa\x91\x1fC\xaf\xea\x92Dy\xb8\xcfC'
p290
tp291
baFnan
aI61
ag20
(g15
S"'\xd0\xa4>"
p292
tp293
Rp294
aa(lp295
g1
ag25
ag5
(g6
(I0
tp296
g8
tp297
Rp298
(I1
(I4
tp299
g15
I00
S'\xb5=\x84D\x0b//D\xb9\x03\xa4D\xb9\x9d\\D'
p300
tp301
baFnan
aI64
ag20
(g15
S'nEe?'
p302
tp303
Rp304
aasS'13.png'
p305
(lp306
(lp307
g305
ag4
ag5
(g6
(I0
tp308
g8
tp309
Rp310
(I1
(I4
tp311
g15
I00
S'b\xd4\x91D\xd1\xa2\xe0C|h\xb2D\xd6\xc9JD'
p312
tp313
baFnan
aI1
ag20
(g15
S'\x99\x99|?'
p314
tp315
Rp316
aa(lp317
g305
ag25
ag5
(g6
(I0
tp318
g8
tp319
Rp320
(I1
(I4
tp321
g15
I00
S'\x9c\xdc\x9dCO+\xe8C\xcf\xce\x12D\x02\t\x85D'
p322
tp323
baFnan
aI57
ag20
(g15
S':y~?'
p324
tp325
Rp326
aa(lp327
g305
ag25
ag5
(g6
(I0
tp328
g8
tp329
Rp330
(I1
(I4
tp331
g15
I00
S'\xf3<\xbdD$\xac\xc0B\xf7\xd2\xe3D\xf3\t\xd1C'
p332
tp333
baFnan
aI57
ag20
(g15
S'\xc3tn?'
p334
tp335
Rp336
aa(lp337
g305
ag25
ag5
(g6
(I0
tp338
g8
tp339
Rp340
(I1
(I4
tp341
g15
I00
S'\xd8t\x90A\x89\xda\xd0C\xc8\xb9\xd0C~\xfc\x81D'
p342
tp343
baFnan
aI57
ag20
(g15
S'i4X?'
p344
tp345
Rp346
aa(lp347
g305
ag25
ag5
(g6
(I0
tp348
g8
tp349
Rp350
(I1
(I4
tp351
g15
I00
S'@\n4A\xcf\x18dC\x08\x81\xf3B-q\x00D'
p352
tp353
baFnan
aI57
ag20
(g15
S'SxI?'
p354
tp355
Rp356
aa(lp357
g305
ag25
ag5
(g6
(I0
tp358
g8
tp359
Rp360
(I1
(I4
tp361
g15
I00
S'\x9f-\x0eD(\xed\x1cB\xe9r\x1fD\x12\xaa\x10C'
p362
tp363
baFnan
aI57
ag20
(g15
S'_\xe8@?'
p364
tp365
Rp366
aa(lp367
g305
ag25
ag5
(g6
(I0
tp368
g8
tp369
Rp370
(I1
(I4
tp371
g15
I00
S'\xab=\x14D\x80I\xb4A\xcf\xcf@D\x13N*C'
p372
tp373
baFnan
aI57
ag20
(g15
S'6\xab;?'
p374
tp375
Rp376
aa(lp377
g305
ag25
ag5
(g6
(I0
tp378
g8
tp379
Rp380
(I1
(I4
tp381
g15
I00
S'\x14\x15>Dh\xae6A*\xbd^D\xce\xdf6C'
p382
tp383
baFnan
aI57
ag20
(g15
S'h\xe95?'
p384
tp385
Rp386
aa(lp387
g305
ag25
ag5
(g6
(I0
tp388
g8
tp389
Rp390
(I1
(I4
tp391
g15
I00
S'\xc2\xd3\xaeDRB\x19D\xa4P\xc9D\xd8\xf8nD'
p392
tp393
baFnan
aI57
ag20
(g15
S'N\x014?'
p394
tp395
Rp396
aa(lp397
g305
ag25
ag5
(g6
(I0
tp398
g8
tp399
Rp400
(I1
(I4
tp401
g15
I00
S'\x11\xb1dDL,\x04CA\xd0\x92Df8\xe4C'
p402
tp403
baFnan
aI57
ag20
(g15
S'VI1?'
p404
tp405
Rp406
aa(lp407
g305
ag25
ag5
(g6
(I0
tp408
g8
tp409
Rp410
(I1
(I4
tp411
g15
I00
S'\xa6 \xaaC\xe4\xb75B\xc7\x89\x1cD\xc6\xc4\xb7C'
p412
tp413
baFnan
aI57
ag20
(g15
S'\x8b_%?'
p414
tp415
Rp416
aa(lp417
g305
ag25
ag5
(g6
(I0
tp418
g8
tp419
Rp420
(I1
(I4
tp421
g15
I00
S'@^\xc1C\x8c\t_C\xfcEDD=%DD'
p422
tp423
baFnan
aI57
ag20
(g15
S'\x07/\xfd>'
p424
tp425
Rp426
aa(lp427
g305
ag25
ag5
(g6
(I0
tp428
g8
tp429
Rp430
(I1
(I4
tp431
g15
I00
S',\xe7\\B\x0cAhC\t\x85\x0fC\xacs\x98C'
p432
tp433
baFnan
aI57
ag20
(g15
S'^\xea\xe9>'
p434
tp435
Rp436
aa(lp437
g305
ag25
ag5
(g6
(I0
tp438
g8
tp439
Rp440
(I1
(I4
tp441
g15
I00
S'\xc0\xb7,@\xc8\x9b\xbbC7\xac\xa6B\x1c\x01\tD'
p442
tp443
baFnan
aI57
ag20
(g15
S'\xe5\xec\xcd>'
p444
tp445
Rp446
aa(lp447
g305
ag25
ag5
(g6
(I0
tp448
g8
tp449
Rp450
(I1
(I4
tp451
g15
I00
S'r56D\xe8\xbcbC4HyD\xc7\xdf\x17D'
p452
tp453
baFnan
aI57
ag20
(g15
S'^\xd0\xc1>'
p454
tp455
Rp456
aa(lp457
g305
ag25
ag5
(g6
(I0
tp458
g8
tp459
Rp460
(I1
(I4
tp461
g15
I00
S'\xdd\x9d\xa6D\xf4\x7f\x9cC\xbf}\xd9D\xa6\xcaaD'
p462
tp463
baFnan
aI57
ag20
(g15
S'\xb2I\xbe>'
p464
tp465
Rp466
aa(lp467
g305
ag25
ag5
(g6
(I0
tp468
g8
tp469
Rp470
(I1
(I4
tp471
g15
I00
S'\xe0\xce\x81?\xa6rUC\xfc\x92\x82B\x1f)\xacC'
p472
tp473
baFnan
aI57
ag20
(g15
S'N\xb4\xad>'
p474
tp475
Rp476
aa(lp477
g305
ag25
ag5
(g6
(I0
tp478
g8
tp479
Rp480
(I1
(I4
tp481
g15
I00
S'4\xae\x81C\xbf\x9cgC\xc0\xe3\xc9C\x8a\x03\x00D'
p482
tp483
baFnan
aI57
ag20
(g15
S'I\xec\xa4>'
p484
tp485
Rp486
aa(lp487
g305
ag25
ag5
(g6
(I0
tp488
g8
tp489
Rp490
(I1
(I4
tp491
g15
I00
S'V\x84BD\xaey.D\xb7\x00\xb7D\x00\xe0\x86D'
p492
tp493
baFnan
aI61
ag20
(g15
S'\xd1\xe1v?'
p494
tp495
Rp496
aa(lp497
g305
ag25
ag5
(g6
(I0
tp498
g8
tp499
Rp500
(I1
(I4
tp501
g15
I00
S'$<\xbbC\xea\x15\xa4C\xf6kDD\xbf\x1f<D'
p502
tp503
baFnan
aI61
ag20
(g15
S'\xf7\xea\\?'
p504
tp505
Rp506
aa(lp507
g305
ag25
ag5
(g6
(I0
tp508
g8
tp509
Rp510
(I1
(I4
tp511
g15
I00
S'\xb2\x0f\x1eD\x90\xcadC\x1e\x00\x7fD#\x85\x19D'
p512
tp513
baFnan
aI61
ag20
(g15
S'\x16\xd0Y?'
p514
tp515
Rp516
aa(lp517
g305
ag25
ag5
(g6
(I0
tp518
g8
tp519
Rp520
(I1
(I4
tp521
g15
I00
S'\xc0,"D\x10w\xd7@\xd6$lDZ\x14;C'
p522
tp523
baFnan
aI61
ag20
(g15
S'FcH?'
p524
tp525
Rp526
aa(lp527
g305
ag25
ag5
(g6
(I0
tp528
g8
tp529
Rp530
(I1
(I4
tp531
g15
I00
S'\xb8ZcB\xcb\xe0jC\xb7\x1c\xcaC*Z\xfeC'
p532
tp533
baFnan
aI61
ag20
(g15
S'A\xe04?'
p534
tp535
Rp536
aa(lp537
g305
ag25
ag5
(g6
(I0
tp538
g8
tp539
Rp540
(I1
(I4
tp541
g15
I00
S'\xe0\x04\x83@\x02c\xefC$\xff\xd8C+spD'
p542
tp543
baFnan
aI61
ag20
(g15
S'\xc492?'
p544
tp545
Rp546
aa(lp547
g305
ag25
ag5
(g6
(I0
tp548
g8
tp549
Rp550
(I1
(I4
tp551
g15
I00
S'\xfa&\xa4C\xd2\xae\x1bCMQ$DmB\xe9C'
p552
tp553
baFnan
aI61
ag20
(g15
S'\xa2=\x05?'
p554
tp555
Rp556
aa(lp557
g305
ag25
ag5
(g6
(I0
tp558
g8
tp559
Rp560
(I1
(I4
tp561
g15
I00
S'\x1ca[D\x19$ C\xc0B\x93D\xe8\xc9\xd0C'
p562
tp563
baFnan
aI61
ag20
(g15
S'\x87\x8d\xe5>'
p564
tp565
Rp566
aa(lp567
g305
ag25
ag5
(g6
(I0
tp568
g8
tp569
Rp570
(I1
(I4
tp571
g15
I00
S'"%\xc7C\xb0\x91AB\xf5\x8c\x1cD\xaf\x1c$C'
p572
tp573
baFnan
aI61
ag20
(g15
S'<\x9a\xba>'
p574
tp575
Rp576
aa(lp577
g305
ag25
ag5
(g6
(I0
tp578
g8
tp579
Rp580
(I1
(I4
tp581
g15
I00
S'\xc3t\xa5D\xbe\x1a\x9dC\xf9"\xd9D\xe9Y@D'
p582
tp583
baFnan
aI61
ag20
(g15
S'\x9e\x9b\xb6>'
p584
tp585
Rp586
aa(lp587
g305
ag25
ag5
(g6
(I0
tp588
g8
tp589
Rp590
(I1
(I4
tp591
g15
I00
S'\xb4b\x83D\x1d\xf1+D\xe0\xde\xa5D\xd5f[D'
p592
tp593
baFnan
aI64
ag20
(g15
S'5\xe6h?'
p594
tp595
Rp596
aasS'10.png'
p597
(lp598
(lp599
g597
ag4
ag5
(g6
(I0
tp600
g8
tp601
Rp602
(I1
(I4
tp603
g15
I00
S'\x92\xb2\x8cD 6\xf7C\xee\t\xb1D\xa6\x9fJD'
p604
tp605
baFnan
aI1
ag20
(g15
S'@\xdez?'
p606
tp607
Rp608
aa(lp609
g597
ag25
ag5
(g6
(I0
tp610
g8
tp611
Rp612
(I1
(I4
tp613
g15
I00
S'\xa9\xae\xabC\xacE\x03D\xe8&\x18D\x9e\x91\x84D'
p614
tp615
baFnan
aI57
ag20
(g15
S'&\xf4|?'
p616
tp617
Rp618
aa(lp619
g597
ag25
ag5
(g6
(I0
tp620
g8
tp621
Rp622
(I1
(I4
tp623
g15
I00
S'\x8c\x11\xc0D\x18W\xc4B\xf0[\xe4D$\x8e\xd5C'
p624
tp625
baFnan
aI57
ag20
(g15
S'Z\xe9f?'
p626
tp627
Rp628
aa(lp629
g597
ag25
ag5
(g6
(I0
tp630
g8
tp631
Rp632
(I1
(I4
tp633
g15
I00
S'p\xf8\x12A\x7f\xb8\xe1C\xdaN\xbcC\xe3 \x81D'
p634
tp635
baFnan
aI57
ag20
(g15
S'B\xc7U?'
p636
tp637
Rp638
aa(lp639
g597
ag25
ag5
(g6
(I0
tp640
g8
tp641
Rp642
(I1
(I4
tp643
g15
I00
S'_\x9e\x96D2\xf5{B\x85\xfc\xb5D\xee$\x9cC'
p644
tp645
baFnan
aI57
ag20
(g15
S'o\x9dR?'
p646
tp647
Rp648
aa(lp649
g597
ag25
ag5
(g6
(I0
tp650
g8
tp651
Rp652
(I1
(I4
tp653
g15
I00
S'\x00\xdc\x13DH\xae\xbeA\x16\xb3?D\x1b\xb5)C'
p654
tp655
baFnan
aI57
ag20
(g15
S'\xf09M?'
p656
tp657
Rp658
aa(lp659
g597
ag25
ag5
(g6
(I0
tp660
g8
tp661
Rp662
(I1
(I4
tp663
g15
I00
S'\xf09\x7fD\xa4\xb3\xfeB\xa8\x18\x94D\xd7|\xe0C'
p664
tp665
baFnan
aI57
ag20
(g15
S'\x11\x0bD?'
p666
tp667
Rp668
aa(lp669
g597
ag25
ag5
(g6
(I0
tp670
g8
tp671
Rp672
(I1
(I4
tp673
g15
I00
S'Nk\x0eD\xe9k\x0cB\xc2\xd7\x1fD\xa1\r\x0fC'
p674
tp675
baFnan
aI57
ag20
(g15
S'\x14\xc3B?'
p676
tp677
Rp678
aa(lp679
g597
ag25
ag5
(g6
(I0
tp680
g8
tp681
Rp682
(I1
(I4
tp683
g15
I00
S'\x18\xbb\\A\x90\xd1xC\x87P\xe4Bu\x00\x05D'
p684
tp685
baFnan
aI57
ag20
(g15
S'\xe7!>?'
p686
tp687
Rp688
aa(lp689
g597
ag25
ag5
(g6
(I0
tp690
g8
tp691
Rp692
(I1
(I4
tp693
g15
I00
S' |?D\x00\x99\xfc@\x94h]D\xff\x8b<C'
p694
tp695
baFnan
aI57
ag20
(g15
S'\xf2\x1a:?'
p696
tp697
Rp698
aa(lp699
g597
ag25
ag5
(g6
(I0
tp700
g8
tp701
Rp702
(I1
(I4
tp703
g15
I00
S'\x85w\xa2C*\x96\x80B\xce~\x1aD\xc4\xcf\xc4C'
p704
tp705
baFnan
aI57
ag20
(g15
S'\xcd{\x15?'
p706
tp707
Rp708
aa(lp709
g597
ag25
ag5
(g6
(I0
tp710
g8
tp711
Rp712
(I1
(I4
tp713
g15
I00
S'_\xec\xafD\xe0> DY\x0f\xc8DfPoD'
p714
tp715
baFnan
aI57
ag20
(g15
S'\xf3\xe7\xfc>'
p716
tp717
Rp718
aa(lp719
g597
ag25
ag5
(g6
(I0
tp720
g8
tp721
Rp722
(I1
(I4
tp723
g15
I00
S'H\xc4\xc4C8\xe9LCh{BD\xbc\x01ED'
p724
tp725
baFnan
aI57
ag20
(g15
S'\xb1\x9c\xe1>'
p726
tp727
Rp728
aa(lp729
g597
ag25
ag5
(g6
(I0
tp730
g8
tp731
Rp732
(I1
(I4
tp733
g15
I00
S'\xab\x8f3D_;_C\xef%zDX\xb4\x17D'
p734
tp735
baFnan
aI57
ag20
(g15
S'\xf6K\xdf>'
p736
tp737
Rp738
aa(lp739
g597
ag25
ag5
(g6
(I0
tp740
g8
tp741
Rp742
(I1
(I4
tp743
g15
I00
S'Q\xad\x82C=\x05aC\xaf\xce\xc9C\xf9\xaa\x00D'
p744
tp745
baFnan
aI57
ag20
(g15
S'\xf2\x02\xde>'
p746
tp747
Rp748
aa(lp749
g597
ag25
ag5
(g6
(I0
tp750
g8
tp751
Rp752
(I1
(I4
tp753
g15
I00
S'xCSB\x9dWhC#\xd3\x0fCK\xbc\x98C'
p754
tp755
baFnan
aI57
ag20
(g15
S'Ra\xd6>'
p756
tp757
Rp758
aa(lp759
g597
ag25
ag5
(g6
(I0
tp760
g8
tp761
Rp762
(I1
(I4
tp763
g15
I00
S' N\x9dC\xefn\xd7CVa\x04D\x0e\xf0>D'
p764
tp765
baFnan
aI57
ag20
(g15
S'E\x9f\xd4>'
p766
tp767
Rp768
aa(lp769
g597
ag25
ag5
(g6
(I0
tp770
g8
tp771
Rp772
(I1
(I4
tp773
g15
I00
S'\xda\x06\x86C2\xa0\x19B\xf8Q\xc8Cq\xfe\x86C'
p774
tp775
baFnan
aI57
ag20
(g15
S'\xbd=\xcd>'
p776
tp777
Rp778
aa(lp779
g597
ag25
ag5
(g6
(I0
tp780
g8
tp781
Rp782
(I1
(I4
tp783
g15
I00
S'\xf3\xfd\xadDD\xd3\x1aD\x1d\xa7\xb7D\x12\xb9HD'
p784
tp785
baFnan
aI57
ag20
(g15
S']\x95\xc6>'
p786
tp787
Rp788
aa(lp789
g597
ag25
ag5
(g6
(I0
tp790
g8
tp791
Rp792
(I1
(I4
tp793
g15
I00
S',\x1a%D\xc8\xdb\x92C<dKDR\xc8*D'
p794
tp795
baFnan
aI57
ag20
(g15
S'\x03\x16\xaf>'
p796
tp797
Rp798
aa(lp799
g597
ag25
ag5
(g6
(I0
tp800
g8
tp801
Rp802
(I1
(I4
tp803
g15
I00
S'\xa6\x7f\xc8C\xdc\x1c8Bl\xaa\x14D\rQ>C'
p804
tp805
baFnan
aI57
ag20
(g15
S'k\x06\x9a>'
p806
tp807
Rp808
aa(lp809
g597
ag25
ag5
(g6
(I0
tp810
g8
tp811
Rp812
(I1
(I4
tp813
g15
I00
S'\xb3OAD\x1e>1D\x10\xc6\xb4D7\xab\x86D'
p814
tp815
baFnan
aI61
ag20
(g15
S'\x82\x1bh?'
p816
tp817
Rp818
aa(lp819
g597
ag25
ag5
(g6
(I0
tp820
g8
tp821
Rp822
(I1
(I4
tp823
g15
I00
S'3\x95\xb0C\xc9\xaa\xa1C\xba\xbbFD\x9a\xe3UD'
p824
tp825
baFnan
aI61
ag20
(g15
S'\x1dIb?'
p826
tp827
Rp828
aa(lp829
g597
ag25
ag5
(g6
(I0
tp830
g8
tp831
Rp832
(I1
(I4
tp833
g15
I00
S'\xc6\xce D\xbf=cC\xe8g~D1$\x19D'
p834
tp835
baFnan
aI61
ag20
(g15
S'\xab\xa6T?'
p836
tp837
Rp838
aa(lp839
g597
ag25
ag5
(g6
(I0
tp840
g8
tp841
Rp842
(I1
(I4
tp843
g15
I00
S't\x9a&D`\x06\xb3@\xd4\xb5kD\xb3\xf5;C'
p844
tp845
baFnan
aI61
ag20
(g15
S'\xa6H6?'
p846
tp847
Rp848
aa(lp849
g597
ag25
ag5
(g6
(I0
tp850
g8
tp851
Rp852
(I1
(I4
tp853
g15
I00
S'\x004J@\xcc\xcc\xeeC,s\xd9C\x08-qD'
p854
tp855
baFnan
aI61
ag20
(g15
S'\x1f\xa53?'
p856
tp857
Rp858
aa(lp859
g597
ag25
ag5
(g6
(I0
tp860
g8
tp861
Rp862
(I1
(I4
tp863
g15
I00
S'p{jBQ[kC5T\xcbC8q\xffC'
p864
tp865
baFnan
aI61
ag20
(g15
S'\xeaV3?'
p866
tp867
Rp868
aa(lp869
g597
ag25
ag5
(g6
(I0
tp870
g8
tp871
Rp872
(I1
(I4
tp873
g15
I00
S's\xac\xa2C\x90\xf6\x19C\xf6\xef#D\x80\xa9\xeaC'
p874
tp875
baFnan
aI61
ag20
(g15
S'\x16^\xdb>'
p876
tp877
Rp878
aa(lp879
g597
ag25
ag5
(g6
(I0
tp880
g8
tp881
Rp882
(I1
(I4
tp883
g15
I00
S'\x0eD[D\\\xe2\x1eC-\xc6\x92DXl\xd8C'
p884
tp885
baFnan
aI61
ag20
(g15
S'\xe0Z\xc0>'
p886
tp887
Rp888
aa(lp889
g597
ag25
ag5
(g6
(I0
tp890
g8
tp891
Rp892
(I1
(I4
tp893
g15
I00
S',4\xc6CP\x0e>B\x1f\x90\x1cD\xcb\x87#C'
p894
tp895
baFnan
aI61
ag20
(g15
S'\xb7\xd5\xb5>'
p896
tp897
Rp898
aa(lp899
g597
ag25
ag5
(g6
(I0
tp900
g8
tp901
Rp902
(I1
(I4
tp903
g15
I00
S';4\xa0D(8\x9eCQ\xe9\xd7D\xa4\x9a=D'
p904
tp905
baFnan
aI61
ag20
(g15
S'K;\x9f>'
p906
tp907
Rp908
aa(lp909
g597
ag25
ag5
(g6
(I0
tp910
g8
tp911
Rp912
(I1
(I4
tp913
g15
I00
S'\xd3\xb1\x84D\x8b\x820D\x11\xfe\xa3D\xfb\xe3[D'
p914
tp915
baFnan
aI64
ag20
(g15
S'\xf1\x04[?'
p916
tp917
Rp918
aasS'11.png'
p919
(lp920
(lp921
g919
ag4
ag5
(g6
(I0
tp922
g8
tp923
Rp924
(I1
(I4
tp925
g15
I00
S'>=\x8bD\xc0~\xf7C\x9e\r\xb1Dr\x8fKD'
p926
tp927
baFnan
aI1
ag20
(g15
S'\x97\xda{?'
p928
tp929
Rp930
aa(lp931
g919
ag25
ag5
(g6
(I0
tp932
g8
tp933
Rp934
(I1
(I4
tp935
g15
I00
S'HB\xa8C\x8e\x94\x00D\x1a~\x16D\xa3C\x84D'
p936
tp937
baFnan
aI57
ag20
(g15
S'\xca\xa0{?'
p938
tp939
Rp940
aa(lp941
g919
ag25
ag5
(g6
(I0
tp942
g8
tp943
Rp944
(I1
(I4
tp945
g15
I00
S'\xe4\xd7\xc4D\x12\x86\xc1BH\x1e\xe5D\xba\x90\xd3C'
p946
tp947
baFnan
aI57
ag20
(g15
S'\xdf\x92j?'
p948
tp949
Rp950
aa(lp951
g919
ag25
ag5
(g6
(I0
tp952
g8
tp953
Rp954
(I1
(I4
tp955
g15
I00
S'P\x04BAi\x86\xe4C4\xdb\xcaC\x12g|D'
p956
tp957
baFnan
aI57
ag20
(g15
S'\x7f\x9eX?'
p958
tp959
Rp960
aa(lp961
g919
ag25
ag5
(g6
(I0
tp962
g8
tp963
Rp964
(I1
(I4
tp965
g15
I00
S'\xe2\xdd\rD\xb7\xa30B\x88f\x1eD;O\x0eC'
p966
tp967
baFnan
aI57
ag20
(g15
S'\x86dL?'
p968
tp969
Rp970
aa(lp971
g919
ag25
ag5
(g6
(I0
tp972
g8
tp973
Rp974
(I1
(I4
tp975
g15
I00
S'\x1d\x98\x14D\x90\xe6\xc0A\x95\x7f@D \xc7*C'
p976
tp977
baFnan
aI57
ag20
(g15
S'\xb3c>?'
p978
tp979
Rp980
aa(lp981
g919
ag25
ag5
(g6
(I0
tp982
g8
tp983
Rp984
(I1
(I4
tp985
g15
I00
S',\x8e1A\x9cRqC ,\xe8B\x04\xcf\x04D'
p986
tp987
baFnan
aI57
ag20
(g15
S'\xdbN8?'
p988
tp989
Rp990
aa(lp991
g919
ag25
ag5
(g6
(I0
tp992
g8
tp993
Rp994
(I1
(I4
tp995
g15
I00
S'\xbdN\\D?1\x0eCH\xc6\x93DnX\xe4C'
p996
tp997
baFnan
aI57
ag20
(g15
S'\x19\x915?'
p998
tp999
Rp1000
aa(lp1001
g919
ag25
ag5
(g6
(I0
tp1002
g8
tp1003
Rp1004
(I1
(I4
tp1005
g15
I00
S'\n\x19@D\xd0\x9c-A<\xdf[D\x7fk:C'
p1006
tp1007
baFnan
aI57
ag20
(g15
S'\x90R-?'
p1008
tp1009
Rp1010
aa(lp1011
g919
ag25
ag5
(g6
(I0
tp1012
g8
tp1013
Rp1014
(I1
(I4
tp1015
g15
I00
S'/`\xa0C\xe4IUB\xf6W\x1bDb\x1e\xc4C'
p1016
tp1017
baFnan
aI57
ag20
(g15
S'G\x1c-?'
p1018
tp1019
Rp1020
aa(lp1021
g919
ag25
ag5
(g6
(I0
tp1022
g8
tp1023
Rp1024
(I1
(I4
tp1025
g15
I00
S'\xdc\xbaLD$\xe8iCl\xa2|D\x00\xe2\x11D'
p1026
tp1027
baFnan
aI57
ag20
(g15
S'Y\x0e(?'
p1028
tp1029
Rp1030
aa(lp1031
g919
ag25
ag5
(g6
(I0
tp1032
g8
tp1033
Rp1034
(I1
(I4
tp1035
g15
I00
S'\xbe\xab\xe3A\xaa2fC\xe6\xfc\x11C\xc3\xdb\x9dC'
p1036
tp1037
baFnan
aI57
ag20
(g15
S'39\x12?'
p1038
tp1039
Rp1040
aa(lp1041
g919
ag25
ag5
(g6
(I0
tp1042
g8
tp1043
Rp1044
(I1
(I4
tp1045
g15
I00
S'\x97\xe6\xadD(\xeb\x18D\xa3\r\xc9D\xb4hoD'
p1046
tp1047
baFnan
aI57
ag20
(g15
S'R\x17\n?'
p1048
tp1049
Rp1050
aa(lp1051
g919
ag25
ag5
(g6
(I0
tp1052
g8
tp1053
Rp1054
(I1
(I4
tp1055
g15
I00
S'\xf7\xc9\xadD\x0b=\x1aD\xcf\xe3\xb7D\xeb9JD'
p1056
tp1057
baFnan
aI57
ag20
(g15
S'\x8a\x8c\x06?'
p1058
tp1059
Rp1060
aa(lp1061
g919
ag25
ag5
(g6
(I0
tp1062
g8
tp1063
Rp1064
(I1
(I4
tp1065
g15
I00
S'\xbc\xf3\xc3C\xa0fKC\xd01CDB\xb0ED'
p1066
tp1067
baFnan
aI57
ag20
(g15
S'\xf7\x96\xe5>'
p1068
tp1069
Rp1070
aa(lp1071
g919
ag25
ag5
(g6
(I0
tp1072
g8
tp1073
Rp1074
(I1
(I4
tp1075
g15
I00
S'\xfa\x85%Dz\xb8\x90C6\xd4KDX\xb4)D'
p1076
tp1077
baFnan
aI57
ag20
(g15
S'\xb9\x05\xc7>'
p1078
tp1079
Rp1080
aa(lp1081
g919
ag25
ag5
(g6
(I0
tp1082
g8
tp1083
Rp1084
(I1
(I4
tp1085
g15
I00
S'\xd8\x86\x86C\x8c\xb2&B\x9c\xf8\xc8C\x10\r\x86C'
p1086
tp1087
baFnan
aI57
ag20
(g15
S'/3\xad>'
p1088
tp1089
Rp1090
aa(lp1091
g919
ag25
ag5
(g6
(I0
tp1092
g8
tp1093
Rp1094
(I1
(I4
tp1095
g15
I00
S'M\xdd\xb8DW\xf3cC)\x88\xdaD\xa8_\xbfC'
p1096
tp1097
baFnan
aI57
ag20
(g15
S'\xbf\xe3\xa5>'
p1098
tp1099
Rp1100
aa(lp1101
g919
ag25
ag5
(g6
(I0
tp1102
g8
tp1103
Rp1104
(I1
(I4
tp1105
g15
I00
S'\xc2B\x8aCOJUC\x9a\xdf\xcdC\x83>\x00D'
p1106
tp1107
baFnan
aI57
ag20
(g15
S'\x80\x90\xa4>'
p1108
tp1109
Rp1110
aa(lp1111
g919
ag25
ag5
(g6
(I0
tp1112
g8
tp1113
Rp1114
(I1
(I4
tp1115
g15
I00
S'\xc0\xfa\xd8?\xad\xb8ZC\xeaC\x88B\xc4\r\xb3C'
p1116
tp1117
baFnan
aI57
ag20
(g15
S'\xfb4\x9f>'
p1118
tp1119
Rp1120
aa(lp1121
g919
ag25
ag5
(g6
(I0
tp1122
g8
tp1123
Rp1124
(I1
(I4
tp1125
g15
I00
S'\xa1{\x01D\x9c,\x12B\x83\xd49D\x167\xa3C'
p1126
tp1127
baFnan
aI57
ag20
(g15
S'\xa9$\x9c>'
p1128
tp1129
Rp1130
aa(lp1131
g919
ag25
ag5
(g6
(I0
tp1132
g8
tp1133
Rp1134
(I1
(I4
tp1135
g15
I00
S'\x91\x0c\xafC\xe4h\xa3C\x00SFD\xac&XD'
p1136
tp1137
baFnan
aI61
ag20
(g15
S'A\xb3b?'
p1138
tp1139
Rp1140
aa(lp1141
g919
ag25
ag5
(g6
(I0
tp1142
g8
tp1143
Rp1144
(I1
(I4
tp1145
g15
I00
S"8\x8f\x1fDK'hCR#~D\xa5\xc3\x18D"
p1146
tp1147
baFnan
aI61
ag20
(g15
S'D\xa8a?'
p1148
tp1149
Rp1150
aa(lp1151
g919
ag25
ag5
(g6
(I0
tp1152
g8
tp1153
Rp1154
(I1
(I4
tp1155
g15
I00
S'"\xa8>D\x91\xe92D\xdf\xd7\xb7D\x00\xe0\x86D'
p1156
tp1157
baFnan
aI61
ag20
(g15
S'\xeeOa?'
p1158
tp1159
Rp1160
aa(lp1161
g919
ag25
ag5
(g6
(I0
tp1162
g8
tp1163
Rp1164
(I1
(I4
tp1165
g15
I00
S'\x88\xe4\xa2D\xc5~\xa0C\xa6\x01\xd8D(\xe0fD'
p1166
tp1167
baFnan
aI61
ag20
(g15
S'\x8e\xbbH?'
p1168
tp1169
Rp1170
aa(lp1171
g919
ag25
ag5
(g6
(I0
tp1172
g8
tp1173
Rp1174
(I1
(I4
tp1175
g15
I00
S'\x803\x8e@\x9c\xf2\xeeCFV\xdaC\xb0\x05rD'
p1176
tp1177
baFnan
aI61
ag20
(g15
S'\x11\xd6??'
p1178
tp1179
Rp1180
aa(lp1181
g919
ag25
ag5
(g6
(I0
tp1182
g8
tp1183
Rp1184
(I1
(I4
tp1185
g15
I00
S'T\xdd"D\xd0\x06\x9b@6ulD\\\xbd<C'
p1186
tp1187
baFnan
aI61
ag20
(g15
S'K>;?'
p1188
tp1189
Rp1190
aa(lp1191
g919
ag25
ag5
(g6
(I0
tp1192
g8
tp1193
Rp1194
(I1
(I4
tp1195
g15
I00
S'p\xcb_Be\x1alC\x0c\x8c\xcaC:^\xfeC'
p1196
tp1197
baFnan
aI61
ag20
(g15
S'x\x952?'
p1198
tp1199
Rp1200
aa(lp1201
g919
ag25
ag5
(g6
(I0
tp1202
g8
tp1203
Rp1204
(I1
(I4
tp1205
g15
I00
S'\xdc\xb5\xa3C\xf3\xa8\x14C\xb8\xd6 D\x0c\x10\xbaC'
p1206
tp1207
baFnan
aI61
ag20
(g15
S'\xa5A\xec>'
p1208
tp1209
Rp1210
aa(lp1211
g919
ag25
ag5
(g6
(I0
tp1212
g8
tp1213
Rp1214
(I1
(I4
tp1215
g15
I00
S'K\n\xc6C\x07T<B\xa7\xb4\x1cD\xac\x9b$C'
p1216
tp1217
baFnan
aI61
ag20
(g15
S'uG\xa5>'
p1218
tp1219
Rp1220
aa(lp1221
g919
ag25
ag5
(g6
(I0
tp1222
g8
tp1223
Rp1224
(I1
(I4
tp1225
g15
I00
S'<\x9dYD\xab\xea\x1bC\x98\x83\x93D\x06\xa0\xe2C'
p1226
tp1227
baFnan
aI61
ag20
(g15
S'\x9a\xea\x9f>'
p1228
tp1229
Rp1230
aa(lp1231
g919
ag25
ag5
(g6
(I0
tp1232
g8
tp1233
Rp1234
(I1
(I4
tp1235
g15
I00
S' gWD:E\x1cCBx\x93D\n\xfbpC'
p1236
tp1237
baFnan
aI61
ag20
(g15
S'\x91\xc1\x99>'
p1238
tp1239
Rp1240
aa(lp1241
g919
ag25
ag5
(g6
(I0
tp1242
g8
tp1243
Rp1244
(I1
(I4
tp1245
g15
I00
S'\xeb0\x84D\xd6\xaf0DOs\xa4DN\xc7[D'
p1246
tp1247
baFnan
aI64
ag20
(g15
S'\x0c\x11b?'
p1248
tp1249
Rp1250
aasS'2.png'
p1251
(lp1252
(lp1253
g1251
ag4
ag5
(g6
(I0
tp1254
g8
tp1255
Rp1256
(I1
(I4
tp1257
g15
I00
S'\xebT\x8bD>g\xfaC\x13\x84\xb1D\xcdVMD'
p1258
tp1259
baFnan
aI1
ag20
(g15
S't+{?'
p1260
tp1261
Rp1262
aa(lp1263
g1251
ag25
ag5
(g6
(I0
tp1264
g8
tp1265
Rp1266
(I1
(I4
tp1267
g15
I00
S'b\xdf\xadC\xdf\x90\x11D\xa1\x11\x17D\x84\xa6\x84D'
p1268
tp1269
baFnan
aI57
ag20
(g15
S'\x88Y|?'
p1270
tp1271
Rp1272
aa(lp1273
g1251
ag25
ag5
(g6
(I0
tp1274
g8
tp1275
Rp1276
(I1
(I4
tp1277
g15
I00
S'1\xcc\x92C\x88\x07\xdfC\x87{\xfeC:\x97TD'
p1278
tp1279
baFnan
aI57
ag20
(g15
S'5\x9cs?'
p1280
tp1281
Rp1282
aa(lp1283
g1251
ag25
ag5
(g6
(I0
tp1284
g8
tp1285
Rp1286
(I1
(I4
tp1287
g15
I00
S'\x96\xce\xc7A\xa8\xa7\x9aC\x062\xf7BI\xe7\x01D'
p1288
tp1289
baFnan
aI57
ag20
(g15
S'\x11\xf4e?'
p1290
tp1291
Rp1292
aa(lp1293
g1251
ag25
ag5
(g6
(I0
tp1294
g8
tp1295
Rp1296
(I1
(I4
tp1297
g15
I00
S'\\\xec\xbdDh3\xacB\xcc$\xe5D\xfa+\xd6C'
p1298
tp1299
baFnan
aI57
ag20
(g15
S'1\xa6d?'
p1300
tp1301
Rp1302
aa(lp1303
g1251
ag25
ag5
(g6
(I0
tp1304
g8
tp1305
Rp1306
(I1
(I4
tp1307
g15
I00
S'J\x97\xadDx\x84\x1aDv\x01\xb7D\xd8\xfcID'
p1308
tp1309
baFnan
aI57
ag20
(g15
S'\xd0\xc4R?'
p1310
tp1311
Rp1312
aa(lp1313
g1251
ag25
ag5
(g6
(I0
tp1314
g8
tp1315
Rp1316
(I1
(I4
tp1317
g15
I00
S'\xd0\xc2 A\xadB\xe5C\x1ar\xc3CHGxD'
p1318
tp1319
baFnan
aI57
ag20
(g15
S't\xc7P?'
p1320
tp1321
Rp1322
aa(lp1323
g1251
ag25
ag5
(g6
(I0
tp1324
g8
tp1325
Rp1326
(I1
(I4
tp1327
g15
I00
S'b\t?D0p\x07A`V]D>g8C'
p1328
tp1329
baFnan
aI57
ag20
(g15
S'k\xdeC?'
p1330
tp1331
Rp1332
aa(lp1333
g1251
ag25
ag5
(g6
(I0
tp1334
g8
tp1335
Rp1336
(I1
(I4
tp1337
g15
I00
S'X\xc3\x14D \xd3\x99A\x96bAD\xcd\xcc4C'
p1338
tp1339
baFnan
aI57
ag20
(g15
S'\xac\xee@?'
p1340
tp1341
Rp1342
aa(lp1343
g1251
ag25
ag5
(g6
(I0
tp1344
g8
tp1345
Rp1346
(I1
(I4
tp1347
g15
I00
S'\xb1w^D\xcb\xd1\x05C\xfdW\x92D,g\xe5C'
p1348
tp1349
baFnan
aI57
ag20
(g15
S'\xbf\xb8@?'
p1350
tp1351
Rp1352
aa(lp1353
g1251
ag25
ag5
(g6
(I0
tp1354
g8
tp1355
Rp1356
(I1
(I4
tp1357
g15
I00
S'\xd1@\x9dC\xd8\x80LBV\xe9\x15D\xf0\xb8\xcdC'
p1358
tp1359
baFnan
aI57
ag20
(g15
S'\xd2\xd2 ?'
p1360
tp1361
Rp1362
aa(lp1363
g1251
ag25
ag5
(g6
(I0
tp1364
g8
tp1365
Rp1366
(I1
(I4
tp1367
g15
I00
S'K\xba\rDJ\xae\xdeA\x07\xd3"DT\x07\x18C'
p1368
tp1369
baFnan
aI57
ag20
(g15
S'\xc7\xe9\x19?'
p1370
tp1371
Rp1372
aa(lp1373
g1251
ag25
ag5
(g6
(I0
tp1374
g8
tp1375
Rp1376
(I1
(I4
tp1377
g15
I00
S'<9\xe5A\x00QhCl\xb5\x12C(H\x9dC'
p1378
tp1379
baFnan
aI57
ag20
(g15
S'\xe2\xe9\x06?'
p1380
tp1381
Rp1382
aa(lp1383
g1251
ag25
ag5
(g6
(I0
tp1384
g8
tp1385
Rp1386
(I1
(I4
tp1387
g15
I00
S'>5\xafDv"\x18D\x06\xf3\xc8D\xb8@oD'
p1388
tp1389
baFnan
aI57
ag20
(g15
S'\x8e\xae\xde>'
p1390
tp1391
Rp1392
aa(lp1393
g1251
ag25
ag5
(g6
(I0
tp1394
g8
tp1395
Rp1396
(I1
(I4
tp1397
g15
I00
S'T\xf3}C\xc6\xf8qC\x12\xbc\xc7C\xbc\x08\x01D'
p1398
tp1399
baFnan
aI57
ag20
(g15
S'\xe4\xc0\xd9>'
p1400
tp1401
Rp1402
aa(lp1403
g1251
ag25
ag5
(g6
(I0
tp1404
g8
tp1405
Rp1406
(I1
(I4
tp1407
g15
I00
S'bE\xc5C\xc2\x90\x95C\rjBD\xd3\xd7=D'
p1408
tp1409
baFnan
aI57
ag20
(g15
S'd\xfe\xd1>'
p1410
tp1411
Rp1412
aa(lp1413
g1251
ag25
ag5
(g6
(I0
tp1414
g8
tp1415
Rp1416
(I1
(I4
tp1417
g15
I00
S'\xc7N\x9cDv\xb8MB?-\xb8D\xdd\\\x92C'
p1418
tp1419
baFnan
aI57
ag20
(g15
S'\xe9\xca\xb1>'
p1420
tp1421
Rp1422
aa(lp1423
g1251
ag25
ag5
(g6
(I0
tp1424
g8
tp1425
Rp1426
(I1
(I4
tp1427
g15
I00
S'\x02`CD;\xbf/D\xfd+\xb4D\x00\xe0\x86D'
p1428
tp1429
baFnan
aI61
ag20
(g15
S'\xf1\xb3g?'
p1430
tp1431
Rp1432
aa(lp1433
g1251
ag25
ag5
(g6
(I0
tp1434
g8
tp1435
Rp1436
(I1
(I4
tp1437
g15
I00
S'Vx!Dk\x89aC\xbe\xa5~D\xba_\x1eD'
p1438
tp1439
baFnan
aI61
ag20
(g15
S'B\xcff?'
p1440
tp1441
Rp1442
aa(lp1443
g1251
ag25
ag5
(g6
(I0
tp1444
g8
tp1445
Rp1446
(I1
(I4
tp1447
g15
I00
S'P\xaf\xb4C\xd9x\xa4C\x80\x1aED.!WD'
p1448
tp1449
baFnan
aI61
ag20
(g15
S'.#Y?'
p1450
tp1451
Rp1452
aa(lp1453
g1251
ag25
ag5
(g6
(I0
tp1454
g8
tp1455
Rp1456
(I1
(I4
tp1457
g15
I00
S'\x00\x00\x00\x00\x8b\xdb\xecC\x0b\xff\xdbCe\xa31D'
p1458
tp1459
baFnan
aI61
ag20
(g15
S'\x1a\x11P?'
p1460
tp1461
Rp1462
aa(lp1463
g1251
ag25
ag5
(g6
(I0
tp1464
g8
tp1465
Rp1466
(I1
(I4
tp1467
g15
I00
S'\x04\xd4VB\xae\xafmC\xf0\xc1\xc2C\xfd \xfcC'
p1468
tp1469
baFnan
aI61
ag20
(g15
S'\xff\x7f7?'
p1470
tp1471
Rp1472
aa(lp1473
g1251
ag25
ag5
(g6
(I0
tp1474
g8
tp1475
Rp1476
(I1
(I4
tp1477
g15
I00
S"pf'D`>\xbd@\xa6\xbcjDg\x0f9C"
p1478
tp1479
baFnan
aI61
ag20
(g15
S'\x95S\x14?'
p1480
tp1481
Rp1482
aa(lp1483
g1251
ag25
ag5
(g6
(I0
tp1484
g8
tp1485
Rp1486
(I1
(I4
tp1487
g15
I00
S'\x80\x85\xa2C\x98\x97\x13CQ\xd7\x1eD\xb6Y\xc1C'
p1488
tp1489
baFnan
aI61
ag20
(g15
S'\xe5\xa4\n?'
p1490
tp1491
Rp1492
aa(lp1493
g1251
ag25
ag5
(g6
(I0
tp1494
g8
tp1495
Rp1496
(I1
(I4
tp1497
g15
I00
S'7\x06\x9cDq\xbc\x97C\x85\x14\xd9D\x90\xe4<D'
p1498
tp1499
baFnan
aI61
ag20
(g15
S'o9\x01?'
p1500
tp1501
Rp1502
aa(lp1503
g1251
ag25
ag5
(g6
(I0
tp1504
g8
tp1505
Rp1506
(I1
(I4
tp1507
g15
I00
S'\x08\x1b\xc4C4\n6B\x93\x19\x1cD;\xcd$C'
p1508
tp1509
baFnan
aI61
ag20
(g15
S'\x94\xcb\xb8>'
p1510
tp1511
Rp1512
aa(lp1513
g1251
ag25
ag5
(g6
(I0
tp1514
g8
tp1515
Rp1516
(I1
(I4
tp1517
g15
I00
S'\xb2O^D\x9f\xc9\x1bCqm\x92D\xfa\xae\xf4C'
p1518
tp1519
baFnan
aI61
ag20
(g15
S'\xffY\xaa>'
p1520
tp1521
Rp1522
aa(lp1523
g1251
ag25
ag5
(g6
(I0
tp1524
g8
tp1525
Rp1526
(I1
(I4
tp1527
g15
I00
S'\x80b\x97A*\x80\xe4C\xde\xbf\x1aD\xd0\\\x80D'
p1528
tp1529
baFnan
aI61
ag20
(g15
S'\xd2\n\xaa>'
p1530
tp1531
Rp1532
aa(lp1533
g1251
ag25
ag5
(g6
(I0
tp1534
g8
tp1535
Rp1536
(I1
(I4
tp1537
g15
I00
S'\xe4;\x85D\xf2c1D\xb8\n\xa5D\xa2\x1c\\D'
p1538
tp1539
baFnan
aI64
ag20
(g15
S'Y\xd7b?'
p1540
tp1541
Rp1542
aasS'3.png'
p1543
(lp1544
(lp1545
g1543
ag4
ag5
(g6
(I0
tp1546
g8
tp1547
Rp1548
(I1
(I4
tp1549
g15
I00
S'\x95,\x8bDv\xf5\xf9C37\xb1D\x17eMD'
p1550
tp1551
baFnan
aI1
ag20
(g15
S'\xd1\xbez?'
p1552
tp1553
Rp1554
aa(lp1555
g1543
ag25
ag5
(g6
(I0
tp1556
g8
tp1557
Rp1558
(I1
(I4
tp1559
g15
I00
S'\x1ai\xadC\xabw\x0cDb\xfa\x16D\x1ea\x84D'
p1560
tp1561
baFnan
aI57
ag20
(g15
S'\xff\xc5|?'
p1562
tp1563
Rp1564
aa(lp1565
g1543
ag25
ag5
(g6
(I0
tp1566
g8
tp1567
Rp1568
(I1
(I4
tp1569
g15
I00
S'\x8b\x07\x91C">\xe1CN\xc8\x00D\x19dQD'
p1570
tp1571
baFnan
aI57
ag20
(g15
S'\xef\xf3s?'
p1572
tp1573
Rp1574
aa(lp1575
g1543
ag25
ag5
(g6
(I0
tp1576
g8
tp1577
Rp1578
(I1
(I4
tp1579
g15
I00
S'\xee\xa4\xbcDF\t\xbdB\xae\x85\xe4Dd\xf0\xd3C'
p1580
tp1581
baFnan
aI57
ag20
(g15
S'\xeb\xb5m?'
p1582
tp1583
Rp1584
aa(lp1585
g1543
ag25
ag5
(g6
(I0
tp1586
g8
tp1587
Rp1588
(I1
(I4
tp1589
g15
I00
S'Z\xdf\xdfA\xdaa\x97C\x8ee\xf5B\xaa0\x03D'
p1590
tp1591
baFnan
aI57
ag20
(g15
S'\xc2\xa6Y?'
p1592
tp1593
Rp1594
aa(lp1595
g1543
ag25
ag5
(g6
(I0
tp1596
g8
tp1597
Rp1598
(I1
(I4
tp1599
g15
I00
S'z~\xadD\x84\x8d\x1aD\x12\x06\xb7D\xba\x05JD'
p1600
tp1601
baFnan
aI57
ag20
(g15
S'\xb0\xc3V?'
p1602
tp1603
Rp1604
aa(lp1605
g1543
ag25
ag5
(g6
(I0
tp1606
g8
tp1607
Rp1608
(I1
(I4
tp1609
g15
I00
S'\xf0\xe1\x16A\xbcI\xe6C\x1e\xda\xc3C\xc0\\xD'
p1610
tp1611
baFnan
aI57
ag20
(g15
S'llU?'
p1612
tp1613
Rp1614
aa(lp1615
g1543
ag25
ag5
(g6
(I0
tp1616
g8
tp1617
Rp1618
(I1
(I4
tp1619
g15
I00
S'\xb4m\xa9C\x08\x9f;B\x00\r\x1cD9\xd1\xc0C'
p1620
tp1621
baFnan
aI57
ag20
(g15
S'h-T?'
p1622
tp1623
Rp1624
aa(lp1625
g1543
ag25
ag5
(g6
(I0
tp1626
g8
tp1627
Rp1628
(I1
(I4
tp1629
g15
I00
S';\xad]DP\xe0\x02C\xb3\x11\x92D2v\xe9C'
p1630
tp1631
baFnan
aI57
ag20
(g15
S'\xbf\xfcD?'
p1632
tp1633
Rp1634
aa(lp1635
g1543
ag25
ag5
(g6
(I0
tp1636
g8
tp1637
Rp1638
(I1
(I4
tp1639
g15
I00
S'\x0e\xd7>D\xd8\xcd\x11A\x98\x0e]DL\xec8C'
p1640
tp1641
baFnan
aI57
ag20
(g15
S'&GD?'
p1642
tp1643
Rp1644
aa(lp1645
g1543
ag25
ag5
(g6
(I0
tp1646
g8
tp1647
Rp1648
(I1
(I4
tp1649
g15
I00
S'\xeaF\x13Dp\xf5\xbcA\x80-@D\xf4\x14/C'
p1650
tp1651
baFnan
aI57
ag20
(g15
S'\x14$C?'
p1652
tp1653
Rp1654
aa(lp1655
g1543
ag25
ag5
(g6
(I0
tp1656
g8
tp1657
Rp1658
(I1
(I4
tp1659
g15
I00
S'X\xd3\rD\x9a\x15\xe7Ah\xee!D)\xae\x12C'
p1660
tp1661
baFnan
aI57
ag20
(g15
S'\x8eL,?'
p1662
tp1663
Rp1664
aa(lp1665
g1543
ag25
ag5
(g6
(I0
tp1666
g8
tp1667
Rp1668
(I1
(I4
tp1669
g15
I00
S'\xce\xb7\xafD/\xd2\x14D\xce<\xcaD\xd7\xcflD'
p1670
tp1671
baFnan
aI57
ag20
(g15
S'\xb5[\x1a?'
p1672
tp1673
Rp1674
aa(lp1675
g1543
ag25
ag5
(g6
(I0
tp1676
g8
tp1677
Rp1678
(I1
(I4
tp1679
g15
I00
S'\xb2\x05\xbcC\n\xd7\\C\xdd\x97BD\x84"ED'
p1680
tp1681
baFnan
aI57
ag20
(g15
S'9\xa0\xde>'
p1682
tp1683
Rp1684
aa(lp1685
g1543
ag25
ag5
(g6
(I0
tp1686
g8
tp1687
Rp1688
(I1
(I4
tp1689
g15
I00
S'\x93O\x9fD\x12\xd0VB)\xc5\xb8Dt\xc5\x8dC'
p1690
tp1691
baFnan
aI57
ag20
(g15
S'\x1b0\xa1>'
p1692
tp1693
Rp1694
aa(lp1695
g1543
ag25
ag5
(g6
(I0
tp1696
g8
tp1697
Rp1698
(I1
(I4
tp1699
g15
I00
S'\xc8\xe4AD\x94M.D>4\xb5D\xac\xab\x86D'
p1700
tp1701
baFnan
aI61
ag20
(g15
S'\xec\x9ai?'
p1702
tp1703
Rp1704
aa(lp1705
g1543
ag25
ag5
(g6
(I0
tp1706
g8
tp1707
Rp1708
(I1
(I4
tp1709
g15
I00
S'\\3!DF5aC\xd2\xc2~D\x0e*\x1fD'
p1710
tp1711
baFnan
aI61
ag20
(g15
S'\xf9\xabe?'
p1712
tp1713
Rp1714
aa(lp1715
g1543
ag25
ag5
(g6
(I0
tp1716
g8
tp1717
Rp1718
(I1
(I4
tp1719
g15
I00
S'\x9a;\xb1Cpu\xa2C\xf1\xd0ED \xb6WD'
p1720
tp1721
baFnan
aI61
ag20
(g15
S'#GX?'
p1722
tp1723
Rp1724
aa(lp1725
g1543
ag25
ag5
(g6
(I0
tp1726
g8
tp1727
Rp1728
(I1
(I4
tp1729
g15
I00
S'\x00\x00\x00\x00l\xe5\xecC#<\xdeC8:GD'
p1730
tp1731
baFnan
aI61
ag20
(g15
S'\x951L?'
p1732
tp1733
Rp1734
aa(lp1735
g1543
ag25
ag5
(g6
(I0
tp1736
g8
tp1737
Rp1738
(I1
(I4
tp1739
g15
I00
S'd.BB\x9cnkC\xdc*\xc4C|s\xfdC'
p1740
tp1741
baFnan
aI61
ag20
(g15
S'\\\x9a<?'
p1742
tp1743
Rp1744
aa(lp1745
g1543
ag25
ag5
(g6
(I0
tp1746
g8
tp1747
Rp1748
(I1
(I4
tp1749
g15
I00
S"*E'D\xf0+\x9b@\xc2\x19lD\xda\xe96C"
p1750
tp1751
baFnan
aI61
ag20
(g15
S'j\xd8\x0f?'
p1752
tp1753
Rp1754
aa(lp1755
g1543
ag25
ag5
(g6
(I0
tp1756
g8
tp1757
Rp1758
(I1
(I4
tp1759
g15
I00
S'\xa4\x15\xa1C\xc1}\x12C\xdf\x18\x1fD\xdaC\xd2C'
p1760
tp1761
baFnan
aI61
ag20
(g15
S'\x1f2\xa5>'
p1762
tp1763
Rp1764
aa(lp1765
g1543
ag25
ag5
(g6
(I0
tp1766
g8
tp1767
Rp1768
(I1
(I4
tp1769
g15
I00
S'K\x9a[D:\x1e\x1eC\x9as\x92D\x85}\xdbC'
p1770
tp1771
baFnan
aI61
ag20
(g15
S'f\x86\x9b>'
p1772
tp1773
Rp1774
aa(lp1775
g1543
ag25
ag5
(g6
(I0
tp1776
g8
tp1777
Rp1778
(I1
(I4
tp1779
g15
I00
S'"5\x85Do[0D\xd0i\xa5D\xc7\xbd[D'
p1780
tp1781
baFnan
aI64
ag20
(g15
S'.qj?'
p1782
tp1783
Rp1784
aasS'0.png'
p1785
(lp1786
(lp1787
g1785
ag4
ag5
(g6
(I0
tp1788
g8
tp1789
Rp1790
(I1
(I4
tp1791
g15
I00
S'J\x1d\x8bD.\x16\xfaC\x8a\x01\xb2D\xe9\xa6OD'
p1792
tp1793
baFnan
aI1
ag20
(g15
S'\xc85y?'
p1794
tp1795
Rp1796
aa(lp1797
g1785
ag25
ag5
(g6
(I0
tp1798
g8
tp1799
Rp1800
(I1
(I4
tp1801
g15
I00
S'9\xf6\xabCp\xa2\x15D\xf8\xab\x16D\x97\xa3\x84D'
p1802
tp1803
baFnan
aI57
ag20
(g15
S'WK|?'
p1804
tp1805
Rp1806
aa(lp1807
g1785
ag25
ag5
(g6
(I0
tp1808
g8
tp1809
Rp1810
(I1
(I4
tp1811
g15
I00
S'\x170\xc6DBA\xaaBq\xcc\xe5D\x8e\xe1\xd8C'
p1812
tp1813
baFnan
aI57
ag20
(g15
S'\x05\to?'
p1814
tp1815
Rp1816
aa(lp1817
g1785
ag25
ag5
(g6
(I0
tp1818
g8
tp1819
Rp1820
(I1
(I4
tp1821
g15
I00
S'<[\x92C\x04X\xdfC\xef@\x00D\xe0\xe6SD'
p1822
tp1823
baFnan
aI57
ag20
(g15
S'+\xeal?'
p1824
tp1825
Rp1826
aa(lp1827
g1785
ag25
ag5
(g6
(I0
tp1828
g8
tp1829
Rp1830
(I1
(I4
tp1831
g15
I00
S'\x06\xab\xdeA\xf8(\x98C\xc6m\xf4B\x94\x87\x02D'
p1832
tp1833
baFnan
aI57
ag20
(g15
S'<6`?'
p1834
tp1835
Rp1836
aa(lp1837
g1785
ag25
ag5
(g6
(I0
tp1838
g8
tp1839
Rp1840
(I1
(I4
tp1841
g15
I00
S'p\xfc1A\xbd\xec\xe7C\xcc\xf4\xc1Ch\x8dxD'
p1842
tp1843
baFnan
aI57
ag20
(g15
S'\xca}R?'
p1844
tp1845
Rp1846
aa(lp1847
g1785
ag25
ag5
(g6
(I0
tp1848
g8
tp1849
Rp1850
(I1
(I4
tp1851
g15
I00
S'\xca\xd3\x13D\x80\xfa\xafA\xa8j@D\x1e\xd3,C'
p1852
tp1853
baFnan
aI57
ag20
(g15
S'\xb1\xceD?'
p1854
tp1855
Rp1856
aa(lp1857
g1785
ag25
ag5
(g6
(I0
tp1858
g8
tp1859
Rp1860
(I1
(I4
tp1861
g15
I00
S'\xa8{\xadD\x0f.\x1aD\x86\x0c\xb7D\x8faID'
p1862
tp1863
baFnan
aI57
ag20
(g15
S'\xef\xa8@?'
p1864
tp1865
Rp1866
aa(lp1867
g1785
ag25
ag5
(g6
(I0
tp1868
g8
tp1869
Rp1870
(I1
(I4
tp1871
g15
I00
S'\xd9\r\x0eD\xcc\xfd\xd1AK\x15$D\xda\x9c\x16C'
p1872
tp1873
baFnan
aI57
ag20
(g15
S'O\xdb5?'
p1874
tp1875
Rp1876
aa(lp1877
g1785
ag25
ag5
(g6
(I0
tp1878
g8
tp1879
Rp1880
(I1
(I4
tp1881
g15
I00
S'\xd9\xd4]D\xe8,\x05C>#\x92D\xe2(\xe9C'
p1882
tp1883
baFnan
aI57
ag20
(g15
S'\xac{5?'
p1884
tp1885
Rp1886
aa(lp1887
g1785
ag25
ag5
(g6
(I0
tp1888
g8
tp1889
Rp1890
(I1
(I4
tp1891
g15
I00
S'#]>D\xe0\xa85A\xe3\xcc]D\x90\xd26C'
p1892
tp1893
baFnan
aI57
ag20
(g15
S'W@4?'
p1894
tp1895
Rp1896
aa(lp1897
g1785
ag25
ag5
(g6
(I0
tp1898
g8
tp1899
Rp1900
(I1
(I4
tp1901
g15
I00
S'(~\xafD\xcc\xee\x15D.\xc5\xcaD\xfaBlD'
p1902
tp1903
baFnan
aI57
ag20
(g15
S'\x02\x9c"?'
p1904
tp1905
Rp1906
aa(lp1907
g1785
ag25
ag5
(g6
(I0
tp1908
g8
tp1909
Rp1910
(I1
(I4
tp1911
g15
I00
S'\xfe\xcb\xa5C\x88qIB\xe4\xef\x1cDft\xbaC'
p1912
tp1913
baFnan
aI57
ag20
(g15
S' X"?'
p1914
tp1915
Rp1916
aa(lp1917
g1785
ag25
ag5
(g6
(I0
tp1918
g8
tp1919
Rp1920
(I1
(I4
tp1921
g15
I00
S'\x88\xc9\xb7D<ggC\xa6d\xdbD\x1cv\xd2C'
p1922
tp1923
baFnan
aI57
ag20
(g15
S'\xd2\xfa\xe2>'
p1924
tp1925
Rp1926
aa(lp1927
g1785
ag25
ag5
(g6
(I0
tp1928
g8
tp1929
Rp1930
(I1
(I4
tp1931
g15
I00
S'\x9a\xe1}C64qC\xd9\xdf\xc7Cbr\x01D'
p1932
tp1933
baFnan
aI57
ag20
(g15
S'\x11r\xc8>'
p1934
tp1935
Rp1936
aa(lp1937
g1785
ag25
ag5
(g6
(I0
tp1938
g8
tp1939
Rp1940
(I1
(I4
tp1941
g15
I00
S'\xdaZ\xafAy:cC]X\x10C\xf7o\xa0C'
p1942
tp1943
baFnan
aI57
ag20
(g15
S'\xdc\xf8\xc7>'
p1944
tp1945
Rp1946
aa(lp1947
g1785
ag25
ag5
(g6
(I0
tp1948
g8
tp1949
Rp1950
(I1
(I4
tp1951
g15
I00
S"!\xd3\x06D\x9cu\x0eBY\xa5'D\x9c\xd8\xa4C"
p1952
tp1953
baFnan
aI57
ag20
(g15
S'\xd5\xf1\xc6>'
p1954
tp1955
Rp1956
aa(lp1957
g1785
ag25
ag5
(g6
(I0
tp1958
g8
tp1959
Rp1960
(I1
(I4
tp1961
g15
I00
S'\x80m\xc5C\x06,\x94Ch\x8cBD\x8d\x18>D'
p1962
tp1963
baFnan
aI57
ag20
(g15
S'\xe5{\xbe>'
p1964
tp1965
Rp1966
aa(lp1967
g1785
ag25
ag5
(g6
(I0
tp1968
g8
tp1969
Rp1970
(I1
(I4
tp1971
g15
I00
S'\xc0\x88%@\xac\x15\xbbC\x8f\x91\x9bB#b\tD'
p1972
tp1973
baFnan
aI57
ag20
(g15
S'\xfa.\xb2>'
p1974
tp1975
Rp1976
aa(lp1977
g1785
ag25
ag5
(g6
(I0
tp1978
g8
tp1979
Rp1980
(I1
(I4
tp1981
g15
I00
S'K\xdc\x9dD2SPB\x1d\x14\xb8D\x945\x90C'
p1982
tp1983
baFnan
aI57
ag20
(g15
S'\xc7\x9f\x9f>'
p1984
tp1985
Rp1986
aa(lp1987
g1785
ag25
ag5
(g6
(I0
tp1988
g8
tp1989
Rp1990
(I1
(I4
tp1991
g15
I00
S'\xba\x0cBD\xc8\xab,Dc\x8d\xbaD\x00\xe0\x86D'
p1992
tp1993
baFnan
aI61
ag20
(g15
S'\xb7(q?'
p1994
tp1995
Rp1996
aa(lp1997
g1785
ag25
ag5
(g6
(I0
tp1998
g8
tp1999
Rp2000
(I1
(I4
tp2001
g15
I00
S'\xf6|\x1dD\xcbsgC\xa2\xc0\x7fD\xae\xe3\x19D'
p2002
tp2003
baFnan
aI61
ag20
(g15
S'q@]?'
p2004
tp2005
Rp2006
aa(lp2007
g1785
ag25
ag5
(g6
(I0
tp2008
g8
tp2009
Rp2010
(I1
(I4
tp2011
g15
I00
S'$H\xb3C\x19\x03\xa2C\x86<ED\xb4\x04XD'
p2012
tp2013
baFnan
aI61
ag20
(g15
S'eV[?'
p2014
tp2015
Rp2016
aa(lp2017
g1785
ag25
ag5
(g6
(I0
tp2018
g8
tp2019
Rp2020
(I1
(I4
tp2021
g15
I00
S'\x00\x00\x00\x00L\xb2\xecC\xc1\x8e\xddC^\x1cID'
p2022
tp2023
baFnan
aI61
ag20
(g15
S'\xffjT?'
p2024
tp2025
Rp2026
aa(lp2027
g1785
ag25
ag5
(g6
(I0
tp2028
g8
tp2029
Rp2030
(I1
(I4
tp2031
g15
I00
S'\xdc\xa3cB}\xa9lC6c\xc2Cv:\xfcC'
p2032
tp2033
baFnan
aI61
ag20
(g15
S'\xffX<?'
p2034
tp2035
Rp2036
aa(lp2037
g1785
ag25
ag5
(g6
(I0
tp2038
g8
tp2039
Rp2040
(I1
(I4
tp2041
g15
I00
S'\xc2\x9cfD`|\x9fC\x1b\xda\xceDf3qD'
p2042
tp2043
baFnan
aI61
ag20
(g15
S'_g1?'
p2044
tp2045
Rp2046
aa(lp2047
g1785
ag25
ag5
(g6
(I0
tp2048
g8
tp2049
Rp2050
(I1
(I4
tp2051
g15
I00
S'!\xd2%D\xf0\xe8\xbc@\x07\x05kDT\x02:C'
p2052
tp2053
baFnan
aI61
ag20
(g15
S'\xf5\xba\x1e?'
p2054
tp2055
Rp2056
aa(lp2057
g1785
ag25
ag5
(g6
(I0
tp2058
g8
tp2059
Rp2060
(I1
(I4
tp2061
g15
I00
S'2\x85\x9fC\xa5\x87\x12C\x84}\x1fD\xb0\x0c\xc0C'
p2062
tp2063
baFnan
aI61
ag20
(g15
S':\xbc\xe9>'
p2064
tp2065
Rp2066
aa(lp2067
g1785
ag25
ag5
(g6
(I0
tp2068
g8
tp2069
Rp2070
(I1
(I4
tp2071
g15
I00
S'\xfd\xa4[D=\x8d\x1eC\xd0b\x92D\x0c0\xdaC'
p2072
tp2073
baFnan
aI61
ag20
(g15
S'w8\xa7>'
p2074
tp2075
Rp2076
aa(lp2077
g1785
ag25
ag5
(g6
(I0
tp2078
g8
tp2079
Rp2080
(I1
(I4
tp2081
g15
I00
S'j\xc0\xc3CTt-B\x8dl\x1bD\x9e\xaa#C'
p2082
tp2083
baFnan
aI61
ag20
(g15
S'\xec\x11\xa0>'
p2084
tp2085
Rp2086
aa(lp2087
g1785
ag25
ag5
(g6
(I0
tp2088
g8
tp2089
Rp2090
(I1
(I4
tp2091
g15
I00
S'\x17\x97\x85D\x92\xce.D?\xb7\xa8D\x98\xbf[D'
p2092
tp2093
baFnan
aI64
ag20
(g15
S'\x82\xd2G?'
p2094
tp2095
Rp2096
aasS'1.png'
p2097
(lp2098
(lp2099
g2097
ag4
ag5
(g6
(I0
tp2100
g8
tp2101
Rp2102
(I1
(I4
tp2103
g15
I00
S'\xdc\x94\x8aD \xa3\xfaC\x0e\xbd\xb1D\xee\x9cOD'
p2104
tp2105
baFnan
aI1
ag20
(g15
S'>\xadt?'
p2106
tp2107
Rp2108
aa(lp2109
g2097
ag25
ag5
(g6
(I0
tp2110
g8
tp2111
Rp2112
(I1
(I4
tp2113
g15
I00
S'R$\x9dC<\x7f\xedC\xb7\xef\x11D\xad\xa9\x85D'
p2114
tp2115
baFnan
aI57
ag20
(g15
S'\xaa\x9e}?'
p2116
tp2117
Rp2118
aa(lp2119
g2097
ag25
ag5
(g6
(I0
tp2120
g8
tp2121
Rp2122
(I1
(I4
tp2123
g15
I00
S'\xba\xe0\xbcD\x9c[\xb9B\xa4\xb0\xe4D\xe57\xd2C'
p2124
tp2125
baFnan
aI57
ag20
(g15
S'\x13Yk?'
p2126
tp2127
Rp2128
aa(lp2129
g2097
ag25
ag5
(g6
(I0
tp2130
g8
tp2131
Rp2132
(I1
(I4
tp2133
g15
I00
S'\xc8 \xd4A\nS\xa1Cx\xf1\xf0B\xcf\xbc\x03D'
p2134
tp2135
baFnan
aI57
ag20
(g15
S']\x13g?'
p2136
tp2137
Rp2138
aa(lp2139
g2097
ag25
ag5
(g6
(I0
tp2140
g8
tp2141
Rp2142
(I1
(I4
tp2143
g15
I00
S'\x00\\\x16A\xbda\xe4Ca\xa4\xc5Cn\x87xD'
p2144
tp2145
baFnan
aI57
ag20
(g15
S'&\x82N?'
p2146
tp2147
Rp2148
aa(lp2149
g2097
ag25
ag5
(g6
(I0
tp2150
g8
tp2151
Rp2152
(I1
(I4
tp2153
g15
I00
S'\xe0I\xaaCPwMB$\xde\x1cD\xa3\xbb\xc0C'
p2154
tp2155
baFnan
aI57
ag20
(g15
S'!\x86E?'
p2156
tp2157
Rp2158
aa(lp2159
g2097
ag25
ag5
(g6
(I0
tp2160
g8
tp2161
Rp2162
(I1
(I4
tp2163
g15
I00
S'\xdf\xf4\x14D,\xed\xadA/\xa1?D\xda\xc8-C'
p2164
tp2165
baFnan
aI57
ag20
(g15
S'\xf4eC?'
p2166
tp2167
Rp2168
aa(lp2169
g2097
ag25
ag5
(g6
(I0
tp2170
g8
tp2171
Rp2172
(I1
(I4
tp2173
g15
I00
S'\xc43_D\xa4B\xfcBr\xa8\x92D)$\xe9C'
p2174
tp2175
baFnan
aI57
ag20
(g15
S'/TB?'
p2176
tp2177
Rp2178
aa(lp2179
g2097
ag25
ag5
(g6
(I0
tp2180
g8
tp2181
Rp2182
(I1
(I4
tp2183
g15
I00
S'/&\xadD\x91\xeb\x19D\xc5\xf4\xb6D\xc1$ID'
p2184
tp2185
baFnan
aI57
ag20
(g15
S'\x89\xd9;?'
p2186
tp2187
Rp2188
aa(lp2189
g2097
ag25
ag5
(g6
(I0
tp2190
g8
tp2191
Rp2192
(I1
(I4
tp2193
g15
I00
S'&/\x0eD ]\xdaA";!D\x82%\x12C'
p2194
tp2195
baFnan
aI57
ag20
(g15
S'\x8d\xcf(?'
p2196
tp2197
Rp2198
aa(lp2199
g2097
ag25
ag5
(g6
(I0
tp2200
g8
tp2201
Rp2202
(I1
(I4
tp2203
g15
I00
S'X"\xa7D\xc2\xfe\x9cB\xae\x91\xb6D\xb86\x82C'
p2204
tp2205
baFnan
aI57
ag20
(g15
S'\x9d\xae#?'
p2206
tp2207
Rp2208
aa(lp2209
g2097
ag25
ag5
(g6
(I0
tp2210
g8
tp2211
Rp2212
(I1
(I4
tp2213
g15
I00
S'\xa1\xaa=D\x00f\x01A\x17I]Dt\x016C'
p2214
tp2215
baFnan
aI57
ag20
(g15
S'`\xf8\x19?'
p2216
tp2217
Rp2218
aa(lp2219
g2097
ag25
ag5
(g6
(I0
tp2220
g8
tp2221
Rp2222
(I1
(I4
tp2223
g15
I00
S'\x9f/\x80C\xf7\\rCo\xd6\xc7C\xb0z\x01D'
p2224
tp2225
baFnan
aI57
ag20
(g15
S'\x95<\xec>'
p2226
tp2227
Rp2228
aa(lp2229
g2097
ag25
ag5
(g6
(I0
tp2230
g8
tp2231
Rp2232
(I1
(I4
tp2233
g15
I00
S'\x9e\xbb\xbcC\x10\xd3ZC\x9b&BD%FDD'
p2234
tp2235
baFnan
aI57
ag20
(g15
S'\xba\x84\xc9>'
p2236
tp2237
Rp2238
aa(lp2239
g2097
ag25
ag5
(g6
(I0
tp2240
g8
tp2241
Rp2242
(I1
(I4
tp2243
g15
I00
S'\xb0\t\xafAj\xacaCy\xf6\x0eCg\xac\xa0C'
p2244
tp2245
baFnan
aI57
ag20
(g15
S'\xe5\xdd\xbd>'
p2246
tp2247
Rp2248
aa(lp2249
g2097
ag25
ag5
(g6
(I0
tp2250
g8
tp2251
Rp2252
(I1
(I4
tp2253
g15
I00
S'\x84a\xafD\x9e\xc1\x19D&\x85\xc8DB\xfbmD'
p2254
tp2255
baFnan
aI57
ag20
(g15
S'k:\xaa>'
p2256
tp2257
Rp2258
aa(lp2259
g2097
ag25
ag5
(g6
(I0
tp2260
g8
tp2261
Rp2262
(I1
(I4
tp2263
g15
I00
S'\xec\xff9D\xb04aC\xfe8yDd\x89\x16D'
p2264
tp2265
baFnan
aI57
ag20
(g15
S'Y\xa4\xa9>'
p2266
tp2267
Rp2268
aa(lp2269
g2097
ag25
ag5
(g6
(I0
tp2270
g8
tp2271
Rp2272
(I1
(I4
tp2273
g15
I00
S' \x97#D\x1f\xa5dC\xf4\x1f\x7fDr\xd8\x1bD'
p2274
tp2275
baFnan
aI61
ag20
(g15
S'/\x9fh?'
p2276
tp2277
Rp2278
aa(lp2279
g2097
ag25
ag5
(g6
(I0
tp2280
g8
tp2281
Rp2282
(I1
(I4
tp2283
g15
I00
S'\x829CD\x83A/DIU\xb5D\xa9\x98\x86D'
p2284
tp2285
baFnan
aI61
ag20
(g15
S'~\xfef?'
p2286
tp2287
Rp2288
aa(lp2289
g2097
ag25
ag5
(g6
(I0
tp2290
g8
tp2291
Rp2292
(I1
(I4
tp2293
g15
I00
S'\x1f\x0b\xbcC\x10\t\xa3C\x82\x8fCD\x04\xd8FD'
p2294
tp2295
baFnan
aI61
ag20
(g15
S'\xd8\x8aV?'
p2296
tp2297
Rp2298
aa(lp2299
g2097
ag25
ag5
(g6
(I0
tp2300
g8
tp2301
Rp2302
(I1
(I4
tp2303
g15
I00
S'\x00\x00\x00\x00\xc7y\xecC\xf3\xce\xd9C\xc8\xa92D'
p2304
tp2305
baFnan
aI61
ag20
(g15
S'\x10DK?'
p2306
tp2307
Rp2308
aa(lp2309
g2097
ag25
ag5
(g6
(I0
tp2310
g8
tp2311
Rp2312
(I1
(I4
tp2313
g15
I00
S'bI\x83B\x90\xb0jC6\x1b\xcaCV%\xfeC'
p2314
tp2315
baFnan
aI61
ag20
(g15
S'\xb3s7?'
p2316
tp2317
Rp2318
aa(lp2319
g2097
ag25
ag5
(g6
(I0
tp2320
g8
tp2321
Rp2322
(I1
(I4
tp2323
g15
I00
S'\x02\x89\x10D\x98hEA\x84\xeebD\xec\xf38C'
p2324
tp2325
baFnan
aI61
ag20
(g15
S'7\x1e,?'
p2326
tp2327
Rp2328
aa(lp2329
g2097
ag25
ag5
(g6
(I0
tp2330
g8
tp2331
Rp2332
(I1
(I4
tp2333
g15
I00
S'\xf6\xdb`DbE\x9eC;\x16\xd4D\x89\xefsD'
p2334
tp2335
baFnan
aI61
ag20
(g15
S'\xf5U\x12?'
p2336
tp2337
Rp2338
aa(lp2339
g2097
ag25
ag5
(g6
(I0
tp2340
g8
tp2341
Rp2342
(I1
(I4
tp2343
g15
I00
S'\x16\xe8\xa2C\xa5\x82\x14C\x06A!D<\x18\xbbC'
p2344
tp2345
baFnan
aI61
ag20
(g15
S'\x16\xcb\xe5>'
p2346
tp2347
Rp2348
aa(lp2349
g2097
ag25
ag5
(g6
(I0
tp2350
g8
tp2351
Rp2352
(I1
(I4
tp2353
g15
I00
S"I\t\xc5C\x02'=B\xec'\x1cDFR%C"
p2354
tp2355
baFnan
aI61
ag20
(g15
S'\xde\xe0\xae>'
p2356
tp2357
Rp2358
aa(lp2359
g2097
ag25
ag5
(g6
(I0
tp2360
g8
tp2361
Rp2362
(I1
(I4
tp2363
g15
I00
S'\xc8\xb5\x85D\x16>0D\xfa\xb5\xa8D8R[D'
p2364
tp2365
baFnan
aI64
ag20
(g15
S'fk;?'
p2366
tp2367
Rp2368
aasS'6.png'
p2369
(lp2370
(lp2371
g2369
ag4
ag5
(g6
(I0
tp2372
g8
tp2373
Rp2374
(I1
(I4
tp2375
g15
I00
S'F\xf4\x8aD\x04\x06\xf9C\xd2h\xb1D.mOD'
p2376
tp2377
baFnan
aI1
ag20
(g15
S'T\x81v?'
p2378
tp2379
Rp2380
aa(lp2381
g2369
ag25
ag5
(g6
(I0
tp2382
g8
tp2383
Rp2384
(I1
(I4
tp2385
g15
I00
S'j\xbe\x9fC\xc26\xeeC\xf6\x19\x12D\x88\x14\x85D'
p2386
tp2387
baFnan
aI57
ag20
(g15
S'\x14\x91}?'
p2388
tp2389
Rp2390
aa(lp2391
g2369
ag25
ag5
(g6
(I0
tp2392
g8
tp2393
Rp2394
(I1
(I4
tp2395
g15
I00
S'\x93>\xc4D\xc2\xb8\xb5BK\xd5\xe5D\x8ac\xd2C'
p2396
tp2397
baFnan
aI57
ag20
(g15
S'i1f?'
p2398
tp2399
Rp2400
aa(lp2401
g2369
ag25
ag5
(g6
(I0
tp2402
g8
tp2403
Rp2404
(I1
(I4
tp2405
g15
I00
S'\x9eH\xc7A\xa30\x9aC\xec\xba\xf5B\xa4.\x03D'
p2406
tp2407
baFnan
aI57
ag20
(g15
S'X\xc0a?'
p2408
tp2409
Rp2410
aa(lp2411
g2369
ag25
ag5
(g6
(I0
tp2412
g8
tp2413
Rp2414
(I1
(I4
tp2415
g15
I00
S'\x8a\x83\xa9Ch\x97AB\xc1\x80\x1bD[\xd6\xbdC'
p2416
tp2417
baFnan
aI57
ag20
(g15
S'\x9b\x04^?'
p2418
tp2419
Rp2420
aa(lp2421
g2369
ag25
ag5
(g6
(I0
tp2422
g8
tp2423
Rp2424
(I1
(I4
tp2425
g15
I00
S'p\x1e!A:\xf3\xe3Cb\x8a\xc3C\x1b\xb9xD'
p2426
tp2427
baFnan
aI57
ag20
(g15
S'\xb7VU?'
p2428
tp2429
Rp2430
aa(lp2431
g2369
ag25
ag5
(g6
(I0
tp2432
g8
tp2433
Rp2434
(I1
(I4
tp2435
g15
I00
S'o\x90\xadDc\x0e\x1bD\xbd\xf2\xb6Dw\x1eID'
p2436
tp2437
baFnan
aI57
ag20
(g15
S'<\x94Q?'
p2438
tp2439
Rp2440
aa(lp2441
g2369
ag25
ag5
(g6
(I0
tp2442
g8
tp2443
Rp2444
(I1
(I4
tp2445
g15
I00
S'\x82E^D\xca\x97\x01C\x99\r\x92D\x8d\xb8\xeaC'
p2446
tp2447
baFnan
aI57
ag20
(g15
S'M\xdaH?'
p2448
tp2449
Rp2450
aa(lp2451
g2369
ag25
ag5
(g6
(I0
tp2452
g8
tp2453
Rp2454
(I1
(I4
tp2455
g15
I00
S'\x9f\xaa\x13Dp\n\xb1A\xb7\x12@D\x02D0C'
p2456
tp2457
baFnan
aI57
ag20
(g15
S'\xfa\x96H?'
p2458
tp2459
Rp2460
aa(lp2461
g2369
ag25
ag5
(g6
(I0
tp2462
g8
tp2463
Rp2464
(I1
(I4
tp2465
g15
I00
S'2\x1b?D\xe8\x16\x08A\xfc\xaf]D\xec\xff8C'
p2466
tp2467
baFnan
aI57
ag20
(g15
S'{\xad9?'
p2468
tp2469
Rp2470
aa(lp2471
g2369
ag25
ag5
(g6
(I0
tp2472
g8
tp2473
Rp2474
(I1
(I4
tp2475
g15
I00
S'\x86\xd1\rD\xd2X\xe2A\x90;"D1B\x15C'
p2476
tp2477
baFnan
aI57
ag20
(g15
S'\x1b\xa2\x1f?'
p2478
tp2479
Rp2480
aa(lp2481
g2369
ag25
ag5
(g6
(I0
tp2482
g8
tp2483
Rp2484
(I1
(I4
tp2485
g15
I00
S'\xfcu\xa7Do\r\xa2B\x94\xfa\xb5D\x97(\x81C'
p2486
tp2487
baFnan
aI57
ag20
(g15
S'\xc7\xc3\x15?'
p2488
tp2489
Rp2490
aa(lp2491
g2369
ag25
ag5
(g6
(I0
tp2492
g8
tp2493
Rp2494
(I1
(I4
tp2495
g15
I00
S'\x8eb\xf9A\xaa\xcagCG>\x13C\x05\x0c\x9dC'
p2496
tp2497
baFnan
aI57
ag20
(g15
S'4\x9c\x0f?'
p2498
tp2499
Rp2500
aa(lp2501
g2369
ag25
ag5
(g6
(I0
tp2502
g8
tp2503
Rp2504
(I1
(I4
tp2505
g15
I00
S'\x84\n\xb0DM\xbb\x1bDr\x18\xc8D\xeb\xe3nD'
p2506
tp2507
baFnan
aI57
ag20
(g15
S'hj\xf4>'
p2508
tp2509
Rp2510
aa(lp2511
g2369
ag25
ag5
(g6
(I0
tp2512
g8
tp2513
Rp2514
(I1
(I4
tp2515
g15
I00
S"\xd3\xdb{C'#pC\x16j\xc8C?1\x01D"
p2516
tp2517
baFnan
aI57
ag20
(g15
S'H\xa9\xbf>'
p2518
tp2519
Rp2520
aa(lp2521
g2369
ag25
ag5
(g6
(I0
tp2522
g8
tp2523
Rp2524
(I1
(I4
tp2525
g15
I00
S'|+\x88@\xf7\xaaVC\x8c(xB\xee\xab\xa9C'
p2526
tp2527
baFnan
aI57
ag20
(g15
S'8\x04\xa0>'
p2528
tp2529
Rp2530
aa(lp2531
g2369
ag25
ag5
(g6
(I0
tp2532
g8
tp2533
Rp2534
(I1
(I4
tp2535
g15
I00
S'\xa0?CD\x9c\xe5,D\xf4\xc2\xb4D\xa2\xa3\x86D'
p2536
tp2537
baFnan
aI61
ag20
(g15
S'n]i?'
p2538
tp2539
Rp2540
aa(lp2541
g2369
ag25
ag5
(g6
(I0
tp2542
g8
tp2543
Rp2544
(I1
(I4
tp2545
g15
I00
S'\xc5`!D4\xbccC\x19\xc7~D\x81\xee\x1dD'
p2546
tp2547
baFnan
aI61
ag20
(g15
S'l\x1ad?'
p2548
tp2549
Rp2550
aa(lp2551
g2369
ag25
ag5
(g6
(I0
tp2552
g8
tp2553
Rp2554
(I1
(I4
tp2555
g15
I00
S' \xbd\xbbCOQ\xa3C\xc6\x88CD\xaa\xd2ID'
p2556
tp2557
baFnan
aI61
ag20
(g15
S'*\xe6Z?'
p2558
tp2559
Rp2560
aa(lp2561
g2369
ag25
ag5
(g6
(I0
tp2562
g8
tp2563
Rp2564
(I1
(I4
tp2565
g15
I00
S'\x80\xdc\xb7@\x88-\xeeC\x82\xa1\xd9C\x9a\xc0sD'
p2566
tp2567
baFnan
aI61
ag20
(g15
S'N{G?'
p2568
tp2569
Rp2570
aa(lp2571
g2369
ag25
ag5
(g6
(I0
tp2572
g8
tp2573
Rp2574
(I1
(I4
tp2575
g15
I00
S'\xfc\xc8WB\x98?mCF&\xc4C\x90\x1d\xfcC'
p2576
tp2577
baFnan
aI61
ag20
(g15
S'\xeaP0?'
p2578
tp2579
Rp2580
aa(lp2581
g2369
ag25
ag5
(g6
(I0
tp2582
g8
tp2583
Rp2584
(I1
(I4
tp2585
g15
I00
S'p\xd3$Dp4\x9f@\xe0;lD\xa2k;C'
p2586
tp2587
baFnan
aI61
ag20
(g15
S'\xfe\x90%?'
p2588
tp2589
Rp2590
aa(lp2591
g2369
ag25
ag5
(g6
(I0
tp2592
g8
tp2593
Rp2594
(I1
(I4
tp2595
g15
I00
S'\xe2a\xc3C\xc0*8B\x19\xce\x1aD\t\x8a#C'
p2596
tp2597
baFnan
aI61
ag20
(g15
S'\x01\xfd\xa4>'
p2598
tp2599
Rp2600
aa(lp2601
g2369
ag25
ag5
(g6
(I0
tp2602
g8
tp2603
Rp2604
(I1
(I4
tp2605
g15
I00
S'G^\x84D\xbfc/DW\x16\xa5D\x83}\\D'
p2606
tp2607
baFnan
aI64
ag20
(g15
S'\xdd\xb5_?'
p2608
tp2609
Rp2610
aasS'7.png'
p2611
(lp2612
(lp2613
g2611
ag4
ag5
(g6
(I0
tp2614
g8
tp2615
Rp2616
(I1
(I4
tp2617
g15
I00
S'#\xd9\x8aD\x8e\x11\xfaCg\xe0\xb1D\x8d$OD'
p2618
tp2619
baFnan
aI1
ag20
(g15
S'\xa5\x18y?'
p2620
tp2621
Rp2622
aa(lp2623
g2611
ag4
ag5
(g6
(I0
tp2624
g8
tp2625
Rp2626
(I1
(I4
tp2627
g15
I00
S'\xc6\xc4\xc4D\x80\xd6\xaa>rv\xceD^\xd9\xaeB'
p2628
tp2629
baFnan
aI1
ag20
(g15
S'a\x02\x0c?'
p2630
tp2631
Rp2632
aa(lp2633
g2611
ag25
ag5
(g6
(I0
tp2634
g8
tp2635
Rp2636
(I1
(I4
tp2637
g15
I00
S"\x088\xaeC\x99\xf9\x1dDR\xd8\x17D'\xb3\x85D"
p2638
tp2639
baFnan
aI57
ag20
(g15
S'*a{?'
p2640
tp2641
Rp2642
aa(lp2643
g2611
ag25
ag5
(g6
(I0
tp2644
g8
tp2645
Rp2646
(I1
(I4
tp2647
g15
I00
S'\xf8s\x90C\xa0\x07\xe2C\xae\x1c\x02DJ"gD'
p2648
tp2649
baFnan
aI57
ag20
(g15
S'\xef,x?'
p2650
tp2651
Rp2652
aa(lp2653
g2611
ag25
ag5
(g6
(I0
tp2654
g8
tp2655
Rp2656
(I1
(I4
tp2657
g15
I00
S'pt\xbeD\xa4L\xbdBLa\xe4D\xe5\xc8\xdeC'
p2658
tp2659
baFnan
aI57
ag20
(g15
S'\r\x8ai?'
p2660
tp2661
Rp2662
aa(lp2663
g2611
ag25
ag5
(g6
(I0
tp2664
g8
tp2665
Rp2666
(I1
(I4
tp2667
g15
I00
S'@\xd9$A\xd6k\xe6C;c\xc1CE\xe4xD'
p2668
tp2669
baFnan
aI57
ag20
(g15
S'M\x19T?'
p2670
tp2671
Rp2672
aa(lp2673
g2611
ag25
ag5
(g6
(I0
tp2674
g8
tp2675
Rp2676
(I1
(I4
tp2677
g15
I00
S'\xae\x84\xb0A\xd2${CY|\x01CN\xd6\x01D'
p2678
tp2679
baFnan
aI57
ag20
(g15
S'\t\xe0P?'
p2680
tp2681
Rp2682
aa(lp2683
g2611
ag25
ag5
(g6
(I0
tp2684
g8
tp2685
Rp2686
(I1
(I4
tp2687
g15
I00
S'\xb7\x81\xaaCh*KB\xce\xc7\x1bD|\xd5\xbfC'
p2688
tp2689
baFnan
aI57
ag20
(g15
S'\xb2\xedK?'
p2690
tp2691
Rp2692
aa(lp2693
g2611
ag25
ag5
(g6
(I0
tp2694
g8
tp2695
Rp2696
(I1
(I4
tp2697
g15
I00
S'\xfaC\xadD0\x9c\x19D4\xfa\xb6DxsID'
p2698
tp2699
baFnan
aI57
ag20
(g15
S'\\\xf2F?'
p2700
tp2701
Rp2702
aa(lp2703
g2611
ag25
ag5
(g6
(I0
tp2704
g8
tp2705
Rp2706
(I1
(I4
tp2707
g15
I00
S'\xe0 ]D\xd7\xed\x05C\x96S\x92DjQ\xe7C'
p2708
tp2709
baFnan
aI57
ag20
(g15
S'\xd6\xa3:?'
p2710
tp2711
Rp2712
aa(lp2713
g2611
ag25
ag5
(g6
(I0
tp2714
g8
tp2715
Rp2716
(I1
(I4
tp2717
g15
I00
S'\x85/@D\xd0u&A\x95R\\D&\xd36C'
p2718
tp2719
baFnan
aI57
ag20
(g15
S'\x8f\x9b3?'
p2720
tp2721
Rp2722
aa(lp2723
g2611
ag25
ag5
(g6
(I0
tp2724
g8
tp2725
Rp2726
(I1
(I4
tp2727
g15
I00
S'\xc0\x87\x14D\xe0\xd6\xa3A\xbc\xfd@D\x8f}3C'
p2728
tp2729
baFnan
aI57
ag20
(g15
S'\xc5\xe71?'
p2730
tp2731
Rp2732
aa(lp2733
g2611
ag25
ag5
(g6
(I0
tp2734
g8
tp2735
Rp2736
(I1
(I4
tp2737
g15
I00
S'\x19\xca\rD\xf2e\xccA\xe7+$Do7\x12C'
p2738
tp2739
baFnan
aI57
ag20
(g15
S'\x1d\xc3\x0f?'
p2740
tp2741
Rp2742
aa(lp2743
g2611
ag25
ag5
(g6
(I0
tp2744
g8
tp2745
Rp2746
(I1
(I4
tp2747
g15
I00
S'\x10\xf7\xafDO\xfd\x19D\xa2\xfb\xc8D\xcd\xcdnD'
p2748
tp2749
baFnan
aI57
ag20
(g15
S'\x0e}\xea>'
p2750
tp2751
Rp2752
aa(lp2753
g2611
ag25
ag5
(g6
(I0
tp2754
g8
tp2755
Rp2756
(I1
(I4
tp2757
g15
I00
S'\xab\xb4\xbeC\xf8\x89PC\x9e\x05CD\xbe\x0fFD'
p2758
tp2759
baFnan
aI57
ag20
(g15
S'\xd3\x90\xe8>'
p2760
tp2761
Rp2762
aa(lp2763
g2611
ag25
ag5
(g6
(I0
tp2764
g8
tp2765
Rp2766
(I1
(I4
tp2767
g15
I00
S'|\x90\xbbA\xfa\xd8gC\xcc\x15\x13C]K\x9dC'
p2768
tp2769
baFnan
aI57
ag20
(g15
S'\x9a!\xde>'
p2770
tp2771
Rp2772
aa(lp2773
g2611
ag25
ag5
(g6
(I0
tp2774
g8
tp2775
Rp2776
(I1
(I4
tp2777
g15
I00
S'\x00\xdc\xc9=g&\xb8C\xe7\xbd\xa0BIn\x08D'
p2778
tp2779
baFnan
aI57
ag20
(g15
S'\xae\xc5\xc4>'
p2780
tp2781
Rp2782
aa(lp2783
g2611
ag25
ag5
(g6
(I0
tp2784
g8
tp2785
Rp2786
(I1
(I4
tp2787
g15
I00
S'\xda\xc0\xa5B\xde\xfahC<\xed\xc0C\x92\xf0\x01D'
p2788
tp2789
baFnan
aI57
ag20
(g15
S'G&\xab>'
p2790
tp2791
Rp2792
aa(lp2793
g2611
ag25
ag5
(g6
(I0
tp2794
g8
tp2795
Rp2796
(I1
(I4
tp2797
g15
I00
S'\xbc^BD5\x190Dr/\xb4D\x06\xdf\x86D'
p2798
tp2799
baFnan
aI61
ag20
(g15
S'P)d?'
p2800
tp2801
Rp2802
aa(lp2803
g2611
ag25
ag5
(g6
(I0
tp2804
g8
tp2805
Rp2806
(I1
(I4
tp2807
g15
I00
S'\x96w"Dn\x0ecC\x04\x9e~D\x00\xec\x1cD'
p2808
tp2809
baFnan
aI61
ag20
(g15
S':qb?'
p2810
tp2811
Rp2812
aa(lp2813
g2611
ag25
ag5
(g6
(I0
tp2814
g8
tp2815
Rp2816
(I1
(I4
tp2817
g15
I00
S'G*\xb3C\n\xce\xa0C \x05ED\xb5\xa4XD'
p2818
tp2819
baFnan
aI61
ag20
(g15
S'%@]?'
p2820
tp2821
Rp2822
aa(lp2823
g2611
ag25
ag5
(g6
(I0
tp2824
g8
tp2825
Rp2826
(I1
(I4
tp2827
g15
I00
S'\xe0X\xdd@\xfcr\xf0C<[\xdaC\xf4\x1csD'
p2828
tp2829
baFnan
aI61
ag20
(g15
S'\xb7\xb7N?'
p2830
tp2831
Rp2832
aa(lp2833
g2611
ag25
ag5
(g6
(I0
tp2834
g8
tp2835
Rp2836
(I1
(I4
tp2837
g15
I00
S'oI#D\x80\x83\xa2@\xb5\xe8lD\xc2?9C'
p2838
tp2839
baFnan
aI61
ag20
(g15
S'\xb7%*?'
p2840
tp2841
Rp2842
aa(lp2843
g2611
ag25
ag5
(g6
(I0
tp2844
g8
tp2845
Rp2846
(I1
(I4
tp2847
g15
I00
S'L\xbb6B?siC~.\xc9C\xac\x94\xfbC'
p2848
tp2849
baFnan
aI61
ag20
(g15
S'\x8b\x96(?'
p2850
tp2851
Rp2852
aa(lp2853
g2611
ag25
ag5
(g6
(I0
tp2854
g8
tp2855
Rp2856
(I1
(I4
tp2857
g15
I00
S'j\xe0\xa2C\x80\x86\x12C\xaa( D\xd8K\xbaC'
p2858
tp2859
baFnan
aI61
ag20
(g15
S'\xce\xb1\xe9>'
p2860
tp2861
Rp2862
aa(lp2863
g2611
ag25
ag5
(g6
(I0
tp2864
g8
tp2865
Rp2866
(I1
(I4
tp2867
g15
I00
S'\xf0\x82\x84D\xe38/D\xbe.\xa5D\xbb6\\D'
p2868
tp2869
baFnan
aI64
ag20
(g15
S'\xc8W\\?'
p2870
tp2871
Rp2872
aasS'4.png'
p2873
(lp2874
(lp2875
g2873
ag4
ag5
(g6
(I0
tp2876
g8
tp2877
Rp2878
(I1
(I4
tp2879
g15
I00
S'\xcf\xae\x8aD>\xaa\xf9C{\xd5\xb1D\x0f\x84ND'
p2880
tp2881
baFnan
aI1
ag20
(g15
S'\xf0Vx?'
p2882
tp2883
Rp2884
aa(lp2885
g2873
ag25
ag5
(g6
(I0
tp2886
g8
tp2887
Rp2888
(I1
(I4
tp2889
g15
I00
S'\xb2\xa4\x8fC>%\xe2C]\x18\x0eD4D\x84D'
p2890
tp2891
baFnan
aI57
ag20
(g15
S'\xbc\t}?'
p2892
tp2893
Rp2894
aa(lp2895
g2873
ag25
ag5
(g6
(I0
tp2896
g8
tp2897
Rp2898
(I1
(I4
tp2899
g15
I00
S'\xde\t\xc6DV\xe4\xb2B6\x8d\xe5D8\x93\xd4C'
p2900
tp2901
baFnan
aI57
ag20
(g15
S'\xbb9f?'
p2902
tp2903
Rp2904
aa(lp2905
g2873
ag25
ag5
(g6
(I0
tp2906
g8
tp2907
Rp2908
(I1
(I4
tp2909
g15
I00
S'vY\xd5A\xc6x\x99C"\xfc\xf3BZV\x02D'
p2910
tp2911
baFnan
aI57
ag20
(g15
S'\xc3\xf3b?'
p2912
tp2913
Rp2914
aa(lp2915
g2873
ag25
ag5
(g6
(I0
tp2916
g8
tp2917
Rp2918
(I1
(I4
tp2919
g15
I00
S'0\xef0A\x9e\x9d\xe6CB%\xc3C\xb3\xacxD'
p2920
tp2921
baFnan
aI57
ag20
(g15
S'+!Q?'
p2922
tp2923
Rp2924
aa(lp2925
g2873
ag25
ag5
(g6
(I0
tp2926
g8
tp2927
Rp2928
(I1
(I4
tp2929
g15
I00
S'5\xcd\xa9C<$CB\x80:\x1cD\xca\x91\xbfC'
p2930
tp2931
baFnan
aI57
ag20
(g15
S'\x0e\x00N?'
p2932
tp2933
Rp2934
aa(lp2935
g2873
ag25
ag5
(g6
(I0
tp2936
g8
tp2937
Rp2938
(I1
(I4
tp2939
g15
I00
S'\x87\x88\xadD\x1a2\x1aD\xd3\x08\xb7D\x14\xfdID'
p2940
tp2941
baFnan
aI57
ag20
(g15
S'\x04\xe5H?'
p2942
tp2943
Rp2944
aa(lp2945
g2873
ag25
ag5
(g6
(I0
tp2946
g8
tp2947
Rp2948
(I1
(I4
tp2949
g15
I00
S"\x82\x93\x14D\xec\xd8\xaeA\x9a'@D\xc0\xc50C"
p2950
tp2951
baFnan
aI57
ag20
(g15
S'h\xb2@?'
p2952
tp2953
Rp2954
aa(lp2955
g2873
ag25
ag5
(g6
(I0
tp2956
g8
tp2957
Rp2958
(I1
(I4
tp2959
g15
I00
S'\xdd\x01?D \n\x02A\r\xa8_D\xd7o8C'
p2960
tp2961
baFnan
aI57
ag20
(g15
S'\xc0\xee=?'
p2962
tp2963
Rp2964
aa(lp2965
g2873
ag25
ag5
(g6
(I0
tp2966
g8
tp2967
Rp2968
(I1
(I4
tp2969
g15
I00
S'P\xb2]D\x03}\x03C2\x10\x92D\xaey\xe9C'
p2970
tp2971
baFnan
aI57
ag20
(g15
S';\x8d8?'
p2972
tp2973
Rp2974
aa(lp2975
g2873
ag25
ag5
(g6
(I0
tp2976
g8
tp2977
Rp2978
(I1
(I4
tp2979
g15
I00
S'\xf7\xe7\xaeD\x7f\x96\x16D\xf3\r\xcaD5\xb6mD'
p2980
tp2981
baFnan
aI57
ag20
(g15
S'\xf2}%?'
p2982
tp2983
Rp2984
aa(lp2985
g2873
ag25
ag5
(g6
(I0
tp2986
g8
tp2987
Rp2988
(I1
(I4
tp2989
g15
I00
S'@\xd3\rDd\xc7\xeaA|/!D\xfct\x15C'
p2990
tp2991
baFnan
aI57
ag20
(g15
S'\x11\xb5!?'
p2992
tp2993
Rp2994
aa(lp2995
g2873
ag25
ag5
(g6
(I0
tp2996
g8
tp2997
Rp2998
(I1
(I4
tp2999
g15
I00
S'\x12\x04\x10Bw:iCt\xff\x13C\x8c\x1a\x9cC'
p3000
tp3001
baFnan
aI57
ag20
(g15
S'\x92\x95\xfe>'
p3002
tp3003
Rp3004
aa(lp3005
g2873
ag25
ag5
(g6
(I0
tp3006
g8
tp3007
Rp3008
(I1
(I4
tp3009
g15
I00
S'\x9b\x92\x05D\x94(\x00Bc"&DFo\xa4C'
p3010
tp3011
baFnan
aI57
ag20
(g15
S'\x81\x9c\xd5>'
p3012
tp3013
Rp3014
aa(lp3015
g2873
ag25
ag5
(g6
(I0
tp3016
g8
tp3017
Rp3018
(I1
(I4
tp3019
g15
I00
S'l\xef\xc3C\xba\xb2\x94C\xee8BD%">D'
p3020
tp3021
baFnan
aI57
ag20
(g15
S'\x0e\xe2\xd4>'
p3022
tp3023
Rp3024
aa(lp3025
g2873
ag25
ag5
(g6
(I0
tp3026
g8
tp3027
Rp3028
(I1
(I4
tp3029
g15
I00
S' \x19\x9dD\xe6\xa9\x80Bt\x03\xb8D\xb8\x1a\x8dC'
p3030
tp3031
baFnan
aI57
ag20
(g15
S'J\xe7\xd0>'
p3032
tp3033
Rp3034
aa(lp3035
g2873
ag25
ag5
(g6
(I0
tp3036
g8
tp3037
Rp3038
(I1
(I4
tp3039
g15
I00
S'\xb1\xb8xC\x83hwC\xd0\x9a\xc7CD\xc9\x01D'
p3040
tp3041
baFnan
aI57
ag20
(g15
S'Q\\\xcb>'
p3042
tp3043
Rp3044
aa(lp3045
g2873
ag25
ag5
(g6
(I0
tp3046
g8
tp3047
Rp3048
(I1
(I4
tp3049
g15
I00
S'\xb0\x06/@\xa5\x9e\xbbC2\x0f\x9cBp\x81\tD'
p3050
tp3051
baFnan
aI57
ag20
(g15
S'.Y\xb6>'
p3052
tp3053
Rp3054
aa(lp3055
g2873
ag25
ag5
(g6
(I0
tp3056
g8
tp3057
Rp3058
(I1
(I4
tp3059
g15
I00
S'2\x02CD\xc0i/D\xf1*\xb4D\xff\xb4\x86D'
p3060
tp3061
baFnan
aI61
ag20
(g15
S'\xca\xcch?'
p3062
tp3063
Rp3064
aa(lp3065
g2873
ag25
ag5
(g6
(I0
tp3066
g8
tp3067
Rp3068
(I1
(I4
tp3069
g15
I00
S'V\x91#D\xab\x07dC\x0e\x96\x7fD\xbe\x02\x1eD'
p3070
tp3071
baFnan
aI61
ag20
(g15
S'\xc3/d?'
p3072
tp3073
Rp3074
aa(lp3075
g2873
ag25
ag5
(g6
(I0
tp3076
g8
tp3077
Rp3078
(I1
(I4
tp3079
g15
I00
S'\x00L\xbaC\xe4H\xa3C(\xa4CD\xba\x11FD'
p3080
tp3081
baFnan
aI61
ag20
(g15
S'3QO?'
p3082
tp3083
Rp3084
aa(lp3085
g2873
ag25
ag5
(g6
(I0
tp3086
g8
tp3087
Rp3088
(I1
(I4
tp3089
g15
I00
S'\x00\x00\x00\x00>\xe1\xecC8\xbf\xdaC\xdd\xc91D'
p3090
tp3091
baFnan
aI61
ag20
(g15
S'\xa1SJ?'
p3092
tp3093
Rp3094
aa(lp3095
g2873
ag25
ag5
(g6
(I0
tp3096
g8
tp3097
Rp3098
(I1
(I4
tp3099
g15
I00
S'\x10\xbc`B\xb72iC\xf3k\xc7C0\x03\xf4C'
p3100
tp3101
baFnan
aI61
ag20
(g15
S'\xa8\xd5!?'
p3102
tp3103
Rp3104
aa(lp3105
g2873
ag25
ag5
(g6
(I0
tp3106
g8
tp3107
Rp3108
(I1
(I4
tp3109
g15
I00
S'\xd0\xc0(D`\xa5\x9d@\xd0\x17mD\xae*<C'
p3110
tp3111
baFnan
aI61
ag20
(g15
S'\xfa\x86\x06?'
p3112
tp3113
Rp3114
aa(lp3115
g2873
ag25
ag5
(g6
(I0
tp3116
g8
tp3117
Rp3118
(I1
(I4
tp3119
g15
I00
S'R\xaa\xa2C%\x06\x16C\xc0: D\x92\x99\xb9C'
p3120
tp3121
baFnan
aI61
ag20
(g15
S'gZ\xeb>'
p3122
tp3123
Rp3124
aa(lp3125
g2873
ag25
ag5
(g6
(I0
tp3126
g8
tp3127
Rp3128
(I1
(I4
tp3129
g15
I00
S'\xe0\xf5\xa1AR\x18\xe3C\xf5?\x1aD\xc4\xd0\x80D'
p3130
tp3131
baFnan
aI61
ag20
(g15
S'\xd3\xa1\xb4>'
p3132
tp3133
Rp3134
aa(lp3135
g2873
ag25
ag5
(g6
(I0
tp3136
g8
tp3137
Rp3138
(I1
(I4
tp3139
g15
I00
S'$\xb4[D\x876\x1dC\x8aN\x92DRk\xdaC'
p3140
tp3141
baFnan
aI61
ag20
(g15
S'\x84\xcf\xb0>'
p3142
tp3143
Rp3144
aa(lp3145
g2873
ag25
ag5
(g6
(I0
tp3146
g8
tp3147
Rp3148
(I1
(I4
tp3149
g15
I00
S'L\xb4\x9fD\x80A\x9aC\xec\x83\xd9D\xf2\xe5AD'
p3150
tp3151
baFnan
aI61
ag20
(g15
S'H\xad\xb0>'
p3152
tp3153
Rp3154
aa(lp3155
g2873
ag25
ag5
(g6
(I0
tp3156
g8
tp3157
Rp3158
(I1
(I4
tp3159
g15
I00
S'\xe9q\x85D\xebS0D}\xf4\xa8DW\xcd[D'
p3160
tp3161
baFnan
aI64
ag20
(g15
S'\xa5LC?'
p3162
tp3163
Rp3164
aasS'5.png'
p3165
(lp3166
(lp3167
g3165
ag4
ag5
(g6
(I0
tp3168
g8
tp3169
Rp3170
(I1
(I4
tp3171
g15
I00
S'\x921\x8dD;\xcc\xf9C\xca\xfc\xb1D6\xe7LD'
p3172
tp3173
baFnan
aI1
ag20
(g15
S'*\x81w?'
p3174
tp3175
Rp3176
aa(lp3177
g3165
ag25
ag5
(g6
(I0
tp3178
g8
tp3179
Rp3180
(I1
(I4
tp3181
g15
I00
S'\xb0g\x9fC}T\xedC\x92j\x12DR\xaf\x85D'
p3182
tp3183
baFnan
aI57
ag20
(g15
S'\x8a`|?'
p3184
tp3185
Rp3186
aa(lp3187
g3165
ag25
ag5
(g6
(I0
tp3188
g8
tp3189
Rp3190
(I1
(I4
tp3191
g15
I00
S'\xf4\x9e\xc5D44\xaeB\xacx\xe5D\xcd\x1e\xd8C'
p3192
tp3193
baFnan
aI57
ag20
(g15
S'Z\xcfk?'
p3194
tp3195
Rp3196
aa(lp3197
g3165
ag25
ag5
(g6
(I0
tp3198
g8
tp3199
Rp3200
(I1
(I4
tp3201
g15
I00
S'\xea\xc3\xd9A\x0c<\x96C\xba\xc1\xf3B?&\x03D'
p3202
tp3203
baFnan
aI57
ag20
(g15
S'm8T?'
p3204
tp3205
Rp3206
aa(lp3207
g3165
ag25
ag5
(g6
(I0
tp3208
g8
tp3209
Rp3210
(I1
(I4
tp3211
g15
I00
S'\xc4t\xaaC\xbc\x86FBAL\x1cD$,\xc0C'
p3212
tp3213
baFnan
aI57
ag20
(g15
S'\x1e\xc9Q?'
p3214
tp3215
Rp3216
aa(lp3217
g3165
ag25
ag5
(g6
(I0
tp3218
g8
tp3219
Rp3220
(I1
(I4
tp3221
g15
I00
S'p7%A\x83\xa4\xe5C\x96\x84\xc2Cr\x85xD'
p3222
tp3223
baFnan
aI57
ag20
(g15
S'\xdf(M?'
p3224
tp3225
Rp3226
aa(lp3227
g3165
ag25
ag5
(g6
(I0
tp3228
g8
tp3229
Rp3230
(I1
(I4
tp3231
g15
I00
S'\x82\xb3^D\x82\xe2\x00C5\xee\x92D\xef\x9c\xe8C'
p3232
tp3233
baFnan
aI57
ag20
(g15
S'\x9c\x10K?'
p3234
tp3235
Rp3236
aa(lp3237
g3165
ag25
ag5
(g6
(I0
tp3238
g8
tp3239
Rp3240
(I1
(I4
tp3241
g15
I00
S'\xba\x19>D\xa0\x95\x01A\x92\xf7^DP+<C'
p3242
tp3243
baFnan
aI57
ag20
(g15
S'\x05\xc3C?'
p3244
tp3245
Rp3246
aa(lp3247
g3165
ag25
ag5
(g6
(I0
tp3248
g8
tp3249
Rp3250
(I1
(I4
tp3251
g15
I00
S'\xa5f\xadDw\xa6\x1aDw\xde\xb6D\xeb\x06ID'
p3252
tp3253
baFnan
aI57
ag20
(g15
S'\x17{C?'
p3254
tp3255
Rp3256
aa(lp3257
g3165
ag25
ag5
(g6
(I0
tp3258
g8
tp3259
Rp3260
(I1
(I4
tp3261
g15
I00
S'\xef5\x15D\xc4D\xc0A\xc9A@D\xb4\x1c/C'
p3262
tp3263
baFnan
aI57
ag20
(g15
S'\xb2\xa0=?'
p3264
tp3265
Rp3266
aa(lp3267
g3165
ag25
ag5
(g6
(I0
tp3268
g8
tp3269
Rp3270
(I1
(I4
tp3271
g15
I00
S'\xf2\xa9\rD\xee\xf7\x06B\nP D\xb6\xb5\x13C'
p3272
tp3273
baFnan
aI57
ag20
(g15
S"\x02\xa6'?"
p3274
tp3275
Rp3276
aa(lp3277
g3165
ag25
ag5
(g6
(I0
tp3278
g8
tp3279
Rp3280
(I1
(I4
tp3281
g15
I00
S'`\xc4\xb0D\x92\x96\x1bD\x18\xd0\xc8D\xb6UnD'
p3282
tp3283
baFnan
aI57
ag20
(g15
S'\t\x19\xee>'
p3284
tp3285
Rp3286
aa(lp3287
g3165
ag25
ag5
(g6
(I0
tp3288
g8
tp3289
Rp3290
(I1
(I4
tp3291
g15
I00
S'\xaa\x9c~C\xa5#tC\x8b\xc0\xc7C\xb8\xa8\x01D'
p3292
tp3293
baFnan
aI57
ag20
(g15
S'7\x8a\xdc>'
p3294
tp3295
Rp3296
aa(lp3297
g3165
ag25
ag5
(g6
(I0
tp3298
g8
tp3299
Rp3300
(I1
(I4
tp3301
g15
I00
S'\x1a"\xbdCR\x9d^C\x19bBD\xda\xb7DD'
p3302
tp3303
baFnan
aI57
ag20
(g15
S'\x12T\xb9>'
p3304
tp3305
Rp3306
aa(lp3307
g3165
ag25
ag5
(g6
(I0
tp3308
g8
tp3309
Rp3310
(I1
(I4
tp3311
g15
I00
S'\x85\xf1\xc8Cx\xd5BB}h\x12DJ\x9b+C'
p3312
tp3313
baFnan
aI57
ag20
(g15
S'\x9d9\xb0>'
p3314
tp3315
Rp3316
aa(lp3317
g3165
ag25
ag5
(g6
(I0
tp3318
g8
tp3319
Rp3320
(I1
(I4
tp3321
g15
I00
S'@\xda$@\x1a\x9c\xbcCk\x00\x9fBmu\tD'
p3322
tp3323
baFnan
aI57
ag20
(g15
S'ET\xaf>'
p3324
tp3325
Rp3326
aa(lp3327
g3165
ag25
ag5
(g6
(I0
tp3328
g8
tp3329
Rp3330
(I1
(I4
tp3331
g15
I00
S'\xb86"D\xf8\x03dC\xe2\xfa~D-\xe3\x1cD'
p3332
tp3333
baFnan
aI61
ag20
(g15
S't\x88i?'
p3334
tp3335
Rp3336
aa(lp3337
g3165
ag25
ag5
(g6
(I0
tp3338
g8
tp3339
Rp3340
(I1
(I4
tp3341
g15
I00
S'\xb7zADh\x10.D\x96\xc9\xb4D\x00\xe0\x86D'
p3342
tp3343
baFnan
aI61
ag20
(g15
S'\x12rf?'
p3344
tp3345
Rp3346
aa(lp3347
g3165
ag25
ag5
(g6
(I0
tp3348
g8
tp3349
Rp3350
(I1
(I4
tp3351
g15
I00
S'\x06\xc1\xb0C\xaf\xe9\xa0CA\xf4ED\xc2~XD'
p3352
tp3353
baFnan
aI61
ag20
(g15
S'\x15"_?'
p3354
tp3355
Rp3356
aa(lp3357
g3165
ag25
ag5
(g6
(I0
tp3358
g8
tp3359
Rp3360
(I1
(I4
tp3361
g15
I00
S'\x00\x00\x00\x00>P\xedC\xa0f\xddC[\x18MD'
p3362
tp3363
baFnan
aI61
ag20
(g15
S"\x8a'O?"
p3364
tp3365
Rp3366
aa(lp3367
g3165
ag25
ag5
(g6
(I0
tp3368
g8
tp3369
Rp3370
(I1
(I4
tp3371
g15
I00
S'\xbc3HBc=lC\xc4(\xc4C\x14[\xfcC'
p3372
tp3373
baFnan
aI61
ag20
(g15
S'\xf2\xd17?'
p3374
tp3375
Rp3376
aa(lp3377
g3165
ag25
ag5
(g6
(I0
tp3378
g8
tp3379
Rp3380
(I1
(I4
tp3381
g15
I00
S'\xbb\x13%D\xb0;\xb5@w\x0blD\x9c&:C'
p3382
tp3383
baFnan
aI61
ag20
(g15
S'C\xf6\x1b?'
p3384
tp3385
Rp3386
aa(lp3387
g3165
ag25
ag5
(g6
(I0
tp3388
g8
tp3389
Rp3390
(I1
(I4
tp3391
g15
I00
S'l\xa1\xa8C\xf9\x0b#CH\x05$D\x1e\xf5\xe6C'
p3392
tp3393
baFnan
aI61
ag20
(g15
S';|\xf4>'
p3394
tp3395
Rp3396
aa(lp3397
g3165
ag25
ag5
(g6
(I0
tp3398
g8
tp3399
Rp3400
(I1
(I4
tp3401
g15
I00
S'\xfc\x14]D6uuC\x8e\x11\xdfD\x1d*\x81D'
p3402
tp3403
baFnan
aI61
ag20
(g15
S'\xbad\xd9>'
p3404
tp3405
Rp3406
aa(lp3407
g3165
ag25
ag5
(g6
(I0
tp3408
g8
tp3409
Rp3410
(I1
(I4
tp3411
g15
I00
S'k\xb8\x85D\xf0\xb7.D\xefY\xaaDF\xbb[D'
p3412
tp3413
baFnan
aI64
ag20
(g15
S'\xf7\x9a2?'
p3414
tp3415
Rp3416
aasS'8.png'
p3417
(lp3418
(lp3419
g3417
ag4
ag5
(g6
(I0
tp3420
g8
tp3421
Rp3422
(I1
(I4
tp3423
g15
I00
S'4\x8d\x8bD\x19\x8a\xf7C\x1a2\xb1D\x14\xc0KD'
p3424
tp3425
baFnan
aI1
ag20
(g15
S'\xcfg{?'
p3426
tp3427
Rp3428
aa(lp3429
g3417
ag25
ag5
(g6
(I0
tp3430
g8
tp3431
Rp3432
(I1
(I4
tp3433
g15
I00
S'\xd7l\xa2C@\x11\xe1C\x10\xf8\x14D*V\x86D'
p3434
tp3435
baFnan
aI57
ag20
(g15
S'\xd0\xf2{?'
p3436
tp3437
Rp3438
aa(lp3439
g3417
ag25
ag5
(g6
(I0
tp3440
g8
tp3441
Rp3442
(I1
(I4
tp3443
g15
I00
S'\x99\xa7\xbdDN\x10\xbbB\x81f\xe3DN\xaf\xdbC'
p3444
tp3445
baFnan
aI57
ag20
(g15
S'\x11\xebl?'
p3446
tp3447
Rp3448
aa(lp3449
g3417
ag25
ag5
(g6
(I0
tp3450
g8
tp3451
Rp3452
(I1
(I4
tp3453
g15
I00
S'@\x8a\x8cA\xe3>\xccC;\xf0\xd0C\xa1\xb5\x81D'
p3454
tp3455
baFnan
aI57
ag20
(g15
S'\x8f`_?'
p3456
tp3457
Rp3458
aa(lp3459
g3417
ag25
ag5
(g6
(I0
tp3460
g8
tp3461
Rp3462
(I1
(I4
tp3463
g15
I00
S'2C\xb2C\x8c\\RB&\xef\x1bD(\x9d\xbcC'
p3464
tp3465
baFnan
aI57
ag20
(g15
S'/\x89T?'
p3466
tp3467
Rp3468
aa(lp3469
g3417
ag25
ag5
(g6
(I0
tp3470
g8
tp3471
Rp3472
(I1
(I4
tp3473
g15
I00
S'\xfcG\x13D\x1c\xc8\xccAt+?D\xba\xfe&C'
p3474
tp3475
baFnan
aI57
ag20
(g15
S'\x8cwH?'
p3476
tp3477
Rp3478
aa(lp3479
g3417
ag25
ag5
(g6
(I0
tp3480
g8
tp3481
Rp3482
(I1
(I4
tp3483
g15
I00
S'F\xda]D\xd5\xf2\nC\x11\xc9\x92D\x16}\xe3C'
p3484
tp3485
baFnan
aI57
ag20
(g15
S'\xfe\x0eB?'
p3486
tp3487
Rp3488
aa(lp3489
g3417
ag25
ag5
(g6
(I0
tp3490
g8
tp3491
Rp3492
(I1
(I4
tp3493
g15
I00
S'`\xae\x0eD\x10|\x12B\xfc*\x1fD\xb4T\x0fC'
p3494
tp3495
baFnan
aI57
ag20
(g15
S'EzA?'
p3496
tp3497
Rp3498
aa(lp3499
g3417
ag25
ag5
(g6
(I0
tp3500
g8
tp3501
Rp3502
(I1
(I4
tp3503
g15
I00
S'@|\xadD<f\x93Bz*\xb7D\x8e<iC'
p3504
tp3505
baFnan
aI57
ag20
(g15
S'\xe3!;?'
p3506
tp3507
Rp3508
aa(lp3509
g3417
ag25
ag5
(g6
(I0
tp3510
g8
tp3511
Rp3512
(I1
(I4
tp3513
g15
I00
S'l\xcalA`TdCKr\x0bC|\xde\xffC'
p3514
tp3515
baFnan
aI57
ag20
(g15
S'\xe0\x9d+?'
p3516
tp3517
Rp3518
aa(lp3519
g3417
ag25
ag5
(g6
(I0
tp3520
g8
tp3521
Rp3522
(I1
(I4
tp3523
g15
I00
S'F\x16?D\x80\rMA@\xd2[D\xa6j:C'
p3524
tp3525
baFnan
aI57
ag20
(g15
S', %?'
p3526
tp3527
Rp3528
aa(lp3529
g3417
ag25
ag5
(g6
(I0
tp3530
g8
tp3531
Rp3532
(I1
(I4
tp3533
g15
I00
S'\x83\xb5\xadD:p\x17D\xb3\xc6\xc9D\x98moD'
p3534
tp3535
baFnan
aI57
ag20
(g15
S'\xbf\x8b\x1b?'
p3536
tp3537
Rp3538
aa(lp3539
g3417
ag25
ag5
(g6
(I0
tp3540
g8
tp3541
Rp3542
(I1
(I4
tp3543
g15
I00
S'\xb0\xb9K@\x82\xbf\xbeC\x94e\x9cB\xc7\\\tD'
p3544
tp3545
baFnan
aI57
ag20
(g15
S'&}\x01?'
p3546
tp3547
Rp3548
aa(lp3549
g3417
ag25
ag5
(g6
(I0
tp3550
g8
tp3551
Rp3552
(I1
(I4
tp3553
g15
I00
S'n\x11\x84C\xa7"bC\x1a(\xcaCt&\x00D'
p3554
tp3555
baFnan
aI57
ag20
(g15
S'\xbc\xeb\xf9>'
p3556
tp3557
Rp3558
aa(lp3559
g3417
ag25
ag5
(g6
(I0
tp3560
g8
tp3561
Rp3562
(I1
(I4
tp3563
g15
I00
S'\xd4\xe9\xc5C\xf6\xe4\x90CX\x8bCD\xa7\r>D'
p3564
tp3565
baFnan
aI57
ag20
(g15
S'\xc8[\xea>'
p3566
tp3567
Rp3568
aa(lp3569
g3417
ag25
ag5
(g6
(I0
tp3570
g8
tp3571
Rp3572
(I1
(I4
tp3573
g15
I00
S'5x9DM\xe9eC\xdf\x14yD\xc0\xf1\x17D'
p3574
tp3575
baFnan
aI57
ag20
(g15
S'\xfe\xc7\xd3>'
p3576
tp3577
Rp3578
aa(lp3579
g3417
ag25
ag5
(g6
(I0
tp3580
g8
tp3581
Rp3582
(I1
(I4
tp3583
g15
I00
S'80\x86C\xac\x0f B\xaa\x01\xc9C~w\x88C'
p3584
tp3585
baFnan
aI57
ag20
(g15
S'uq\xbf>'
p3586
tp3587
Rp3588
aa(lp3589
g3417
ag25
ag5
(g6
(I0
tp3590
g8
tp3591
Rp3592
(I1
(I4
tp3593
g15
I00
S'\xe0\xde\x9bD(HPB\x96@\xb7D:\xf8\x8fC'
p3594
tp3595
baFnan
aI57
ag20
(g15
S'\xb5\xe2\xba>'
p3596
tp3597
Rp3598
aa(lp3599
g3417
ag25
ag5
(g6
(I0
tp3600
g8
tp3601
Rp3602
(I1
(I4
tp3603
g15
I00
S'\xbb\x1cEB_\x80gC\x8b\xe6\x10Cd`\x98C'
p3604
tp3605
baFnan
aI57
ag20
(g15
S'\x03v\xb5>'
p3606
tp3607
Rp3608
aa(lp3609
g3417
ag25
ag5
(g6
(I0
tp3610
g8
tp3611
Rp3612
(I1
(I4
tp3613
g15
I00
S'\xb9\xf5\xadDMM\x1aDO\x0f\xb8D5\xcdJD'
p3614
tp3615
baFnan
aI57
ag20
(g15
S'\xc8\xdf\xa5>'
p3616
tp3617
Rp3618
aa(lp3619
g3417
ag25
ag5
(g6
(I0
tp3620
g8
tp3621
Rp3622
(I1
(I4
tp3623
g15
I00
S'\x88\x80+A\xc6+fB\xe8udC\x89\xd4\x97C'
p3624
tp3625
baFnan
aI59
ag20
(g15
S'v7\xa7>'
p3626
tp3627
Rp3628
aa(lp3629
g3417
ag25
ag5
(g6
(I0
tp3630
g8
tp3631
Rp3632
(I1
(I4
tp3633
g15
I00
S'\xb4\xe1>D\xb4\xbf1Dt\xbb\xb8D\x00\xe0\x86D'
p3634
tp3635
baFnan
aI61
ag20
(g15
S'A\xd2g?'
p3636
tp3637
Rp3638
aa(lp3639
g3417
ag25
ag5
(g6
(I0
tp3640
g8
tp3641
Rp3642
(I1
(I4
tp3643
g15
I00
S'ak\xadC:\x04\xa3C\x08\xfcED%\x83VD'
p3644
tp3645
baFnan
aI61
ag20
(g15
S'k\x18_?'
p3646
tp3647
Rp3648
aa(lp3649
g3417
ag25
ag5
(g6
(I0
tp3650
g8
tp3651
Rp3652
(I1
(I4
tp3653
g15
I00
S'\x94\x98\x1eD\x86=cC\x82\x0b~D\xd8\x18\x19D'
p3654
tp3655
baFnan
aI61
ag20
(g15
S'7H[?'
p3656
tp3657
Rp3658
aa(lp3659
g3417
ag25
ag5
(g6
(I0
tp3660
g8
tp3661
Rp3662
(I1
(I4
tp3663
g15
I00
S'\x1eM\rD\xf8\x90]A\x8c\xb8kDT`9C'
p3664
tp3665
baFnan
aI61
ag20
(g15
S'\xed\xc6Y?'
p3666
tp3667
Rp3668
aa(lp3669
g3417
ag25
ag5
(g6
(I0
tp3670
g8
tp3671
Rp3672
(I1
(I4
tp3673
g15
I00
S'H\xbbaB\x9a\x14mC\xf0E\xcaC\xd76\xffC'
p3674
tp3675
baFnan
aI61
ag20
(g15
S'N\x18B?'
p3676
tp3677
Rp3678
aa(lp3679
g3417
ag25
ag5
(g6
(I0
tp3680
g8
tp3681
Rp3682
(I1
(I4
tp3683
g15
I00
S'\xd093A\xbes\xd9CZ\xd0\xdcC_\x08}D'
p3684
tp3685
baFnan
aI61
ag20
(g15
S'\xe4\xbc0?'
p3686
tp3687
Rp3688
aa(lp3689
g3417
ag25
ag5
(g6
(I0
tp3690
g8
tp3691
Rp3692
(I1
(I4
tp3693
g15
I00
S'\x1c\xd9UD\x15\x84\x9aC<g\xd7D\x19c\x80D'
p3694
tp3695
baFnan
aI61
ag20
(g15
S'\xd1;!?'
p3696
tp3697
Rp3698
aa(lp3699
g3417
ag25
ag5
(g6
(I0
tp3700
g8
tp3701
Rp3702
(I1
(I4
tp3703
g15
I00
S'\xb8\xb8\xa4C\x0c\xb8\x1aC\xb0\xae#D\x00\xfb\xecC'
p3704
tp3705
baFnan
aI61
ag20
(g15
S'\x96\x03\xc1>'
p3706
tp3707
Rp3708
aa(lp3709
g3417
ag25
ag5
(g6
(I0
tp3710
g8
tp3711
Rp3712
(I1
(I4
tp3713
g15
I00
S'\x99k\xc6C\x15\x14GB\xd8[\x1aD\xc4\x0b#C'
p3714
tp3715
baFnan
aI61
ag20
(g15
S'}/\xa8>'
p3716
tp3717
Rp3718
aa(lp3719
g3417
ag25
ag5
(g6
(I0
tp3720
g8
tp3721
Rp3722
(I1
(I4
tp3723
g15
I00
S'\xde\xe6ZD\xa9\xb1\x1dC#\xb6\x92D\xc82\xe8C'
p3724
tp3725
baFnan
aI61
ag20
(g15
S'S\x0c\x9f>'
p3726
tp3727
Rp3728
aa(lp3729
g3417
ag25
ag5
(g6
(I0
tp3730
g8
tp3731
Rp3732
(I1
(I4
tp3733
g15
I00
S'4j\x84Dp\x800D\xca\xd1\xa3D\xeeE\\D'
p3734
tp3735
baFnan
aI64
ag20
(g15
S'"\xe4X?'
p3736
tp3737
Rp3738
aasS'9.png'
p3739
(lp3740
(lp3741
g3739
ag4
ag5
(g6
(I0
tp3742
g8
tp3743
Rp3744
(I1
(I4
tp3745
g15
I00
S'1\x8a\x8bDf3\xf8C\xafU\xb1D\x9d\x97MD'
p3746
tp3747
baFnan
aI1
ag20
(g15
S'<\xf8z?'
p3748
tp3749
Rp3750
aa(lp3751
g3739
ag25
ag5
(g6
(I0
tp3752
g8
tp3753
Rp3754
(I1
(I4
tp3755
g15
I00
S'Pc\x9eC^e\xe5C-R\x13D\\\xc7\x84D'
p3756
tp3757
baFnan
aI57
ag20
(g15
S'qG~?'
p3758
tp3759
Rp3760
aa(lp3761
g3739
ag25
ag5
(g6
(I0
tp3762
g8
tp3763
Rp3764
(I1
(I4
tp3765
g15
I00
S'\xabQ\xbfDXP\xbbB\x19\xd4\xe3D\x94M\xd4C'
p3766
tp3767
baFnan
aI57
ag20
(g15
S'P\xfdi?'
p3768
tp3769
Rp3770
aa(lp3771
g3739
ag25
ag5
(g6
(I0
tp3772
g8
tp3773
Rp3774
(I1
(I4
tp3775
g15
I00
S'\x18\xe0\x95A\x12\xf0\xd2C\xd2q\xd3C\xf4\x80\x82D'
p3776
tp3777
baFnan
aI57
ag20
(g15
S'V\xa0T?'
p3778
tp3779
Rp3780
aa(lp3781
g3739
ag25
ag5
(g6
(I0
tp3782
g8
tp3783
Rp3784
(I1
(I4
tp3785
g15
I00
S'\xc5\x9f\x0eDj\x867Bsq\x1dD\x16*\x0cC'
p3786
tp3787
baFnan
aI57
ag20
(g15
S'\x98bK?'
p3788
tp3789
Rp3790
aa(lp3791
g3739
ag25
ag5
(g6
(I0
tp3792
g8
tp3793
Rp3794
(I1
(I4
tp3795
g15
I00
S' 5\xd9@n\xab_C\x94\xac\xe5B\x9ax\x02D'
p3796
tp3797
baFnan
aI57
ag20
(g15
S'\x93\xd8F?'
p3798
tp3799
Rp3800
aa(lp3801
g3739
ag25
ag5
(g6
(I0
tp3802
g8
tp3803
Rp3804
(I1
(I4
tp3805
g15
I00
S'\xcc\xe4\x13Dt\xb5\xd1A\xfa)?D\xd8\xec&C'
p3806
tp3807
baFnan
aI57
ag20
(g15
S'\xe4bF?'
p3808
tp3809
Rp3810
aa(lp3811
g3739
ag25
ag5
(g6
(I0
tp3812
g8
tp3813
Rp3814
(I1
(I4
tp3815
g15
I00
S'\t?]D\xed\xe9\x05Ck/\x92D\xda\x04\xe8C'
p3816
tp3817
baFnan
aI57
ag20
(g15
S'\xaa\xffD?'
p3818
tp3819
Rp3820
aa(lp3821
g3739
ag25
ag5
(g6
(I0
tp3822
g8
tp3823
Rp3824
(I1
(I4
tp3825
g15
I00
S'N\x12\xa7D\xe4\x87\x9aB\xe0G\xb6D\\\xe2zC'
p3826
tp3827
baFnan
aI57
ag20
(g15
S'\x92a9?'
p3828
tp3829
Rp3830
aa(lp3831
g3739
ag25
ag5
(g6
(I0
tp3832
g8
tp3833
Rp3834
(I1
(I4
tp3835
g15
I00
S'\xc6\xdf\xaeD\xae\xaa\x18D\xbe{\xcaD\x86\xeeoD'
p3836
tp3837
baFnan
aI57
ag20
(g15
S'\xf5\x860?'
p3838
tp3839
Rp3840
aa(lp3841
g3739
ag25
ag5
(g6
(I0
tp3842
g8
tp3843
Rp3844
(I1
(I4
tp3845
g15
I00
S'd\x87>D\xa8\xf7\x1bA\xde\xc2^D\x8aO8C'
p3846
tp3847
baFnan
aI57
ag20
(g15
S'\x8d\xc8%?'
p3848
tp3849
Rp3850
aa(lp3851
g3739
ag25
ag5
(g6
(I0
tp3852
g8
tp3853
Rp3854
(I1
(I4
tp3855
g15
I00
S'\x03\x8e\xa1C\xb0{YB\xf4I\x1bD\xacO\xc8C'
p3856
tp3857
baFnan
aI57
ag20
(g15
S'\xf5\x7f\x15?'
p3858
tp3859
Rp3860
aa(lp3861
g3739
ag25
ag5
(g6
(I0
tp3862
g8
tp3863
Rp3864
(I1
(I4
tp3865
g15
I00
S'R!\x83CIyfC\x062\xcaC\x93@\x00D'
p3866
tp3867
baFnan
aI57
ag20
(g15
S'\xde\xfd\xda>'
p3868
tp3869
Rp3870
aa(lp3871
g3739
ag25
ag5
(g6
(I0
tp3872
g8
tp3873
Rp3874
(I1
(I4
tp3875
g15
I00
S'`\xca=D-0qCF[xD\x11\x8e\x18D'
p3876
tp3877
baFnan
aI57
ag20
(g15
S'\xf4\n\xcd>'
p3878
tp3879
Rp3880
aa(lp3881
g3739
ag25
ag5
(g6
(I0
tp3882
g8
tp3883
Rp3884
(I1
(I4
tp3885
g15
I00
S'4\x0b\x87C\x86\x88\x1eB\xeem\xc8C\x17[\x87C'
p3886
tp3887
baFnan
aI57
ag20
(g15
S'0#\xcb>'
p3888
tp3889
Rp3890
aa(lp3891
g3739
ag25
ag5
(g6
(I0
tp3892
g8
tp3893
Rp3894
(I1
(I4
tp3895
g15
I00
S'N\x15\x98At\x9bcC\xf5\x88\x0fC|\x9b\x9fC'
p3896
tp3897
baFnan
aI57
ag20
(g15
S'2g\xbf>'
p3898
tp3899
Rp3900
aa(lp3901
g3739
ag25
ag5
(g6
(I0
tp3902
g8
tp3903
Rp3904
(I1
(I4
tp3905
g15
I00
S'%\xc9\xadD\xd4\x91\x19Dy\xcb\xb7D\x00\x05ID'
p3906
tp3907
baFnan
aI57
ag20
(g15
S'\xb1\x8d\xaf>'
p3908
tp3909
Rp3910
aa(lp3911
g3739
ag25
ag5
(g6
(I0
tp3912
g8
tp3913
Rp3914
(I1
(I4
tp3915
g15
I00
S'\x00\x00\x00\x00\xd6\xb1\\C\xfa\xcbnB\xa7]\xc9C'
p3916
tp3917
baFnan
aI57
ag20
(g15
S',\x1b\xab>'
p3918
tp3919
Rp3920
aa(lp3921
g3739
ag25
ag5
(g6
(I0
tp3922
g8
tp3923
Rp3924
(I1
(I4
tp3925
g15
I00
S'H\xee\xc1C\x7f\x8a\x9bC\xccdDDP\xd7GD'
p3926
tp3927
baFnan
aI57
ag20
(g15
S'\xc6S\xa3>'
p3928
tp3929
Rp3930
aa(lp3931
g3739
ag25
ag5
(g6
(I0
tp3932
g8
tp3933
Rp3934
(I1
(I4
tp3935
g15
I00
S'|g\xaeC\xfc$\xa1C\xae\xe6FD\x06\xa6TD'
p3936
tp3937
baFnan
aI61
ag20
(g15
S'V\x86c?'
p3938
tp3939
Rp3940
aa(lp3941
g3739
ag25
ag5
(g6
(I0
tp3942
g8
tp3943
Rp3944
(I1
(I4
tp3945
g15
I00
S'\xd5\xde\x1eD\x0b\x94cC\xe3E}D\xab\x99\x19D'
p3946
tp3947
baFnan
aI61
ag20
(g15
S'\xef\xd0`?'
p3948
tp3949
Rp3950
aa(lp3951
g3739
ag25
ag5
(g6
(I0
tp3952
g8
tp3953
Rp3954
(I1
(I4
tp3955
g15
I00
S'i\xbdAD\x1bB1D\xa8e\xb5D\x00\xe0\x86D'
p3956
tp3957
baFnan
aI61
ag20
(g15
S'\x05\x8e[?'
p3958
tp3959
Rp3960
aa(lp3961
g3739
ag25
ag5
(g6
(I0
tp3962
g8
tp3963
Rp3964
(I1
(I4
tp3965
g15
I00
S'\x1d\x12\x12D0=>A\xeb\x92hD@\xec6C'
p3966
tp3967
baFnan
aI61
ag20
(g15
S'\xf0$A?'
p3968
tp3969
Rp3970
aa(lp3971
g3739
ag25
ag5
(g6
(I0
tp3972
g8
tp3973
Rp3974
(I1
(I4
tp3975
g15
I00
S'8mnB\xa9RlC\x91\xc0\xcaC\x9c*\xfeC'
p3976
tp3977
baFnan
aI61
ag20
(g15
S'\x03N=?'
p3978
tp3979
Rp3980
aa(lp3981
g3739
ag25
ag5
(g6
(I0
tp3982
g8
tp3983
Rp3984
(I1
(I4
tp3985
g15
I00
S'P<\x13A\xea\x9b\xe6C\x1e\xa5\xdbC\xbb\xa0~D'
p3986
tp3987
baFnan
aI61
ag20
(g15
S'ek2?'
p3988
tp3989
Rp3990
aa(lp3991
g3739
ag25
ag5
(g6
(I0
tp3992
g8
tp3993
Rp3994
(I1
(I4
tp3995
g15
I00
S'0\x8eTD8\x7f\xa1C4\xda\xd6D\xe2\xd7\x80D'
p3996
tp3997
baFnan
aI61
ag20
(g15
S'b\x16\x14?'
p3998
tp3999
Rp4000
aa(lp4001
g3739
ag25
ag5
(g6
(I0
tp4002
g8
tp4003
Rp4004
(I1
(I4
tp4005
g15
I00
S'\\*\xa3C\xbci\x1cC\xe9\xe1$D\x98\xc8\xecC'
p4006
tp4007
baFnan
aI61
ag20
(g15
S'L\xa4\xf2>'
p4008
tp4009
Rp4010
aa(lp4011
g3739
ag25
ag5
(g6
(I0
tp4012
g8
tp4013
Rp4014
(I1
(I4
tp4015
g15
I00
S'`6ZD(I\x1bC\x06\x03\x93Db\x1d\xe6C'
p4016
tp4017
baFnan
aI61
ag20
(g15
S'"\xc9\xa4>'
p4018
tp4019
Rp4020
aa(lp4021
g3739
ag25
ag5
(g6
(I0
tp4022
g8
tp4023
Rp4024
(I1
(I4
tp4025
g15
I00
S'\xa4\xfe\x83D\xf0\xca0DD8\xa4D>@\\D'
p4026
tp4027
baFnan
aI64
ag20
(g15
S'Z}Y?'
p4028
tp4029
Rp4030
aas.